ccopy_reg
_reconstructor
p0
(cargparse
Namespace
p1
c__builtin__
object
p2
Ntp3
Rp4
(dp5
S'num_hidden'
p6
I150
sS'embedding_size'
p7
I300
sS'learning_rate'
p8
F0.001
sS'num_epochs'
p9
I1
sS'glove'
p10
I00
sS'toy'
p11
I00
sS'with_model'
p12
I00
sS'batch_size'
p13
I64
sS'num_layers'
p14
I2
sS'keep_prob'
p15
F0.8
sS'beam_width'
p16
I10
sb.