ccopy_reg
_reconstructor
p0
(cargparse
Namespace
p1
c__builtin__
object
p2
Ntp3
Rp4
(dp5
S'num_hidden'
p6
I150
sS'embedding_size'
p7
I300
sS'use_atten'
p8
I01
sS'learning_rate'
p9
F0.001
sS'num_epochs'
p10
I2
sS'glove'
p11
I00
sS'toy'
p12
I00
sS'with_model'
p13
I00
sS'batch_size'
p14
I64
sS'num_layers'
p15
I2
sS'keep_prob'
p16
F0.8
sS'beam_width'
p17
I10
sb.