ccopy_reg
_reconstructor
p0
(cargparse
Namespace
p1
c__builtin__
object
p2
Ntp3
Rp4
(dp5
S'num_hidden'
p6
I150
sS'embedding_size'
p7
I300
sS'recursive_count'
p8
I3
sS'use_atten'
p9
I00
sS'learning_rate'
p10
F0.001
sS'num_epochs'
p11
I1
sS'glove'
p12
I00
sS'toy'
p13
I00
sS'with_model'
p14
I01
sS'batch_size'
p15
I64
sS'num_layers'
p16
I2
sS'keep_prob'
p17
F0.8
sS'beam_width'
p18
I1
sb.