(dp0
S'all'
p1
I23
sS'managed'
p2
I39
sS'able'
p3
I114
sS'actions'
p4
I41
sS'paper'
p5
I27
sS'lately'
p6
I115
sS'</s>'
p7
I3
sS'web'
p8
I70
sS'how'
p9
I117
sS'had'
p10
I12
sS','
p11
I9
sS'day'
p12
I17
sS'better'
p13
I46
sS'to'
p14
I7
sS'program'
p15
I47
sS'weeks'
p16
I48
sS'ski'
p17
I49
sS'sure'
p18
I118
sS'his'
p19
I13
sS'get'
p20
I50
sS'food'
p21
I51
sS'watch'
p22
I52
sS'him'
p23
I45
sS'going'
p24
I24
sS'school'
p25
I53
sS'try'
p26
I54
sS'habits'
p27
I55
sS'stopped'
p28
I56
sS'mile'
p29
I42
sS'regret'
p30
I57
sS'weight'
p31
I18
sS'house'
p32
I58
sS'burger'
p33
I59
sS'decided'
p34
I100
sS'college'
p35
I25
sS'eating'
p36
I69
sS'out'
p37
I62
sS'moon'
p38
I63
sS'machine'
p39
I116
sS'<padding>'
p40
I0
sS'new'
p41
I65
sS'learned'
p42
I66
sS'filled'
p43
I67
sS'shows'
p44
I68
sS'full'
p45
I26
sS'recently'
p46
I61
sS'attention'
p47
I71
sS'sports'
p48
I83
sS'reason'
p49
I72
sS'put'
p50
I73
sS'wall'
p51
I74
sS'on'
p52
I19
sS'about'
p53
I75
sS'of'
p54
I10
sS'vegetarian'
p55
I76
sS'david'
p56
I20
sS'magazine'
p57
I77
sS'became'
p58
I78
sS'bob'
p59
I79
sS'already'
p60
I80
sS'feel'
p61
I81
sS'one'
p62
I21
sS'fast'
p63
I86
sS'quickly'
p64
I64
sS'checked'
p65
I84
sS'guest'
p66
I28
sS'<s>'
p67
I2
sS'angry'
p68
I85
sS'been'
p69
I82
sS'.'
p70
I4
sS'few'
p71
I87
sS'much'
p72
I29
sS'too'
p73
I88
sS'lot'
p74
I30
sS'tom'
p75
I22
sS'john'
p76
I90
sS'was'
p77
I14
sS'woke'
p78
I91
sS'frustration'
p79
I32
sS'that'
p80
I92
sS'started'
p81
I31
sS'understand'
p82
I93
sS'hole'
p83
I94
sS'with'
p84
I95
sS'buying'
p85
I96
sS'he'
p86
I6
sS'made'
p87
I97
sS'places'
p88
I98
sS'work'
p89
I33
sS'up'
p90
I34
sS'project'
p91
I99
sS'examined'
p92
I108
sS'drops'
p93
I35
sS'my'
p94
I101
sS'temper'
p95
I102
sS'<unk>'
p96
I1
sS'and'
p97
I11
sS'noticed'
p98
I103
sS'figure'
p99
I104
sS'played'
p100
I105
sS'is'
p101
I106
sS'middle'
p102
I107
sS'way'
p103
I89
sS'punched'
p104
I109
sS'in'
p105
I15
sS'check'
p106
I110
sS'sat'
p107
I111
sS'afraid'
p108
I112
sS'make'
p109
I113
sS'when'
p110
I40
sS'couch'
p111
I43
sS'write'
p112
I44
sS'very'
p113
I38
sS'finish'
p114
I60
sS"'s"
p115
I119
sS'after'
p116
I36
sS'diet'
p117
I120
sS"'d"
p118
I121
sS'why'
p119
I122
sS'a'
p120
I8
sS'realized'
p121
I37
sS'short'
p122
I123
sS'i'
p123
I16
sS'light'
p124
I124
sS'the'
p125
I5
sS'left'
p126
I125
s.