(dp0
S'opinions'
p1
I83
sS'all'
p2
I37
sS'shoes'
p3
I84
sS'less'
p4
I85
sS'money'
p5
I86
sS'over'
p6
I46
sS'rest'
p7
I47
sS'melody'
p8
I19
sS'</s>'
p9
I3
sS'kate'
p10
I48
sS'bunch'
p11
I88
sS'24'
p12
I89
sS'now'
p13
I29
sS'how'
p14
I91
sS'true'
p15
I92
sS'had'
p16
I93
sS','
p17
I13
sS'than'
p18
I183
sS'to'
p19
I6
sS'going'
p20
I30
sS'glad'
p21
I184
sS'scratch'
p22
I97
sS'has'
p23
I99
sS'excited'
p24
I49
sS'them'
p25
I50
sS'his'
p26
I20
sS'get'
p27
I31
sS'read'
p28
I79
sS'big'
p29
I100
sS'couple'
p30
I101
sS'they'
p31
I32
sS'new'
p32
I40
sS'son'
p33
I45
sS'day'
p34
I21
sS'marcus'
p35
I39
sS'school'
p36
I103
sS'did'
p37
I52
sS'always'
p38
I104
sS'times'
p39
I200
sS'close'
p40
I199
sS'try'
p41
I106
sS'eleanor'
p42
I107
sS'bad'
p43
I108
sS'she'
p44
I15
sS'lose'
p45
I110
sS'small'
p46
I111
sS'found'
p47
I53
sS'went'
p48
I54
sS'cookies'
p49
I113
sS'right'
p50
I114
sS'weight'
p51
I55
sS'people'
p52
I56
sS'house'
p53
I115
sS'zookeeper'
p54
I116
sS'some'
p55
I90
sS'items'
p56
I141
sS'hair'
p57
I57
sS'see'
p58
I72
sS'decided'
p59
I58
sS'are'
p60
I59
sS'our'
p61
I120
sS'out'
p62
I60
sS'for'
p63
I23
sS'jumped'
p64
I98
sS'meals'
p65
I219
sS'ice'
p66
I61
sS'mom'
p67
I117
sS'enough'
p68
I123
sS'<padding>'
p69
I0
sS'medicine'
p70
I124
sS'got'
p71
I38
sS'learned'
p72
I125
sS'doctor'
p73
I227
sS'bought'
p74
I62
sS'body'
p75
I126
sS'be'
p76
I24
sS'we'
p77
I41
sS'full'
p78
I127
sS'eating'
p79
I128
sS'smelled'
p80
I129
sS'corn'
p81
I130
sS'were'
p82
I131
sS'little'
p83
I132
sS'met'
p84
I133
sS'job'
p85
I134
sS'death'
p86
I135
sS'aquarium'
p87
I42
sS'stylish'
p88
I136
sS'put'
p89
I137
sS'along'
p90
I138
sS'wanted'
p91
I63
sS'after'
p92
I212
sS'swimming'
p93
I231
sS'on'
p94
I16
sS'about'
p95
I65
sS'would'
p96
I139
sS'language'
p97
I140
sS'of'
p98
I12
sS'taking'
p99
I142
sS'david'
p100
I25
sS'thing'
p101
I121
sS's'
p102
I144
sS'stress'
p103
I223
sS'whole'
p104
I146
sS'finds'
p105
I147
sS'first'
p106
I148
sS'own'
p107
I66
sS'burns'
p108
I102
sS'jeff'
p109
I150
sS'father'
p110
I151
sS'explained'
p111
I152
sS'pop'
p112
I153
sS'one'
p113
I26
sS'down'
p114
I154
sS'weather'
p115
I109
sS'fast'
p116
I164
sS'duck'
p117
I157
sS'.'
p118
I4
sS'expensive'
p119
I158
sS'horse'
p120
I22
sS'cheered'
p121
I160
sS'khakis'
p122
I205
sS'her'
p123
I27
sS'maid'
p124
I95
sS'<s>'
p125
I2
sS'vegetables'
p126
I105
sS'there'
p127
I162
sS'visit'
p128
I163
sS'long'
p129
I156
sS'quiz'
p130
I33
sS'few'
p131
I112
sS'much'
p132
I166
sS'too'
p133
I167
sS'frustration'
p134
I168
sS'tom'
p135
I169
sS'kid'
p136
I221
sS'was'
p137
I7
sS'tell'
p138
I170
sS'friend'
p139
I171
sS'happy'
p140
I68
sS'hospital'
p141
I161
sS'searches'
p142
I222
sS'head'
p143
I173
sS'spicy'
p144
I174
sS'way'
p145
I175
sS'that'
p146
I17
sS'started'
p147
I176
sS'season'
p148
I177
sS'park'
p149
I178
sS'took'
p150
I34
sS'but'
p151
I179
sS'confused'
p152
I180
sS'realized'
p153
I181
sS'because'
p154
I155
sS'russian'
p155
I182
sS'with'
p156
I69
sS'eat'
p157
I94
sS'buying'
p158
I96
sS'he'
p159
I9
sS'me'
p160
I185
sS'loved'
p161
I70
sS'made'
p162
I71
sS'animals'
p163
I186
sS'room'
p164
I187
sS'up'
p165
I118
sS'roof'
p166
I188
sS"n't"
p167
I43
sS'determined'
p168
I189
sS'time'
p169
I230
sS'many'
p170
I119
sS'growing'
p171
I190
sS'drops'
p172
I191
sS'my'
p173
I35
sS'<unk>'
p174
I1
sS'and'
p175
I10
sS'scratched'
p176
I172
sS'nicer'
p177
I193
sS'played'
p178
I73
sS'minutes'
p179
I194
sS'is'
p180
I28
sS'am'
p181
I195
sS'it'
p182
I14
sS'high'
p183
I196
sS'as'
p184
I74
sS'someone'
p185
I198
sS'at'
p186
I36
sS'in'
p187
I75
sS'girlfriend'
p188
I197
sS'story'
p189
I159
sS'trip'
p190
I44
sS'cream'
p191
I76
sS'!'
p192
I201
sS'different'
p193
I202
sS'afraid'
p194
I203
sS"'ll"
p195
I204
sS'conversation'
p196
I143
sS'make'
p197
I206
sS'when'
p198
I77
sS'overcoming'
p199
I207
sS'same'
p200
I78
sS'very'
p201
I51
sS'other'
p202
I208
sS'buys'
p203
I80
sS'enemies'
p204
I64
sS'dresses'
p205
I210
sS"'s"
p206
I18
sS'mess'
p207
I211
sS'felt'
p208
I145
sS'reach'
p209
I213
sS'most'
p210
I214
sS'lot'
p211
I215
sS'pair'
p212
I216
sS"'m"
p213
I217
sS'friends'
p214
I218
sS'needed'
p215
I165
sS'thoughts'
p216
I220
sS'man'
p217
I67
sS'a'
p218
I8
sS'shortcomings'
p219
I87
sS'kept'
p220
I224
sS"'"
p221
I225
sS'i'
p222
I11
sS'charlie'
p223
I226
sS'later'
p224
I192
sS'salt'
p225
I232
sS'thought'
p226
I81
sS'more'
p227
I228
sS'so'
p228
I82
sS'realizes'
p229
I229
sS'movie'
p230
I122
sS'the'
p231
I5
sS'sat'
p232
I149
sS'er'
p233
I209
sS'amazed'
p234
I233
s.