(dp0
S'shop'
p1
I33
sS'text'
p2
I34
sS'rob'
p3
I35
sS'soon'
p4
I36
sS'actions'
p5
I37
sS'lately'
p6
I112
sS'</s>'
p7
I3
sS'had'
p8
I16
sS','
p9
I11
sS'him'
p10
I18
sS'better'
p11
I39
sS'to'
p12
I9
sS'lets'
p13
I40
sS'going'
p14
I41
sS'weeks'
p15
I42
sS'over'
p16
I43
sS'sent'
p17
I44
sS'coffee'
p18
I45
sS'his'
p19
I10
sS'very'
p20
I12
sS'big'
p21
I46
sS'day'
p22
I17
sS'did'
p23
I47
sS'marry'
p24
I48
sS'brother'
p25
I49
sS'try'
p26
I19
sS'habits'
p27
I50
sS'stopped'
p28
I20
sS'regret'
p29
I51
sS'weight'
p30
I52
sS'house'
p31
I53
sS'feel'
p32
I73
sS'burger'
p33
I54
sS'decided'
p34
I55
sS'recently'
p35
I56
sS'out'
p36
I57
sS'microwave'
p37
I58
sS'quickly'
p38
I59
sS'<padding>'
p39
I0
sS'got'
p40
I60
sS'sluggish'
p41
I61
sS'filled'
p42
I62
sS'bought'
p43
I63
sS'eating'
p44
I21
sS'reason'
p45
I64
sS'put'
p46
I65
sS'on'
p47
I22
sS'sister'
p48
I67
sS'would'
p49
I77
sS'drank'
p50
I83
sS'vegetarian'
p51
I69
sS'david'
p52
I70
sS'became'
p53
I71
sS'whole'
p54
I24
sS'bite'
p55
I79
sS'wall'
p56
I66
sS'one'
p57
I25
sS'embarrassed'
p58
I74
sS'been'
p59
I80
sS'table'
p60
I76
sS'noticed'
p61
I81
sS'from'
p62
I26
sS'guest'
p63
I27
sS'her'
p64
I68
sS'rushed'
p65
I78
sS'<s>'
p66
I2
sS'angry'
p67
I28
sS'fast'
p68
I75
sS'.'
p69
I4
sS'few'
p70
I82
sS'much'
p71
I15
sS'too'
p72
I84
sS'lot'
p73
I85
sS'tom'
p74
I13
sS'was'
p75
I14
sS'store'
p76
I86
sS'himself'
p77
I87
sS'that'
p78
I88
sS'started'
p79
I29
sS'oscar'
p80
I89
sS'about'
p81
I90
sS'but'
p82
I91
sS'it'
p83
I105
sS'hole'
p84
I93
sS'with'
p85
I94
sS'he'
p86
I5
sS'made'
p87
I95
sS'places'
p88
I96
sS'work'
p89
I97
sS"n't"
p90
I98
sS'of'
p91
I23
sS'feeling'
p92
I99
sS'temper'
p93
I100
sS'<unk>'
p94
I1
sS'and'
p95
I6
sS'want'
p96
I109
sS'figure'
p97
I102
sS'process'
p98
I103
sS'is'
p99
I104
sS'confused'
p100
I92
sS'as'
p101
I106
sS'examined'
p102
I107
sS'punched'
p103
I108
sS'have'
p104
I101
sS'in'
p105
I30
sS'sat'
p106
I110
sS'afraid'
p107
I111
sS'couch'
p108
I38
sS'food'
p109
I113
sS'plant'
p110
I114
sS"'s"
p111
I31
sS'after'
p112
I115
sS'diet'
p113
I116
sS"'d"
p114
I117
sS'nothing'
p115
I118
sS'man'
p116
I119
sS'a'
p117
I7
sS'realized'
p118
I120
sS'short'
p119
I121
sS'off'
p120
I122
sS'walked'
p121
I123
sS'asked'
p122
I72
sS'so'
p123
I32
sS'the'
p124
I8
sS'left'
p125
I124
s.