(dp0
S'raining'
p1
I1043
sS'coals'
p2
I5088
sS'nerves'
p3
I4685
sS'copy'
p4
I4038
sS'thai'
p5
I4441
sS'colleges'
p6
I3335
sS'foul'
p7
I2420
sS'four'
p8
I832
sS'protest'
p9
I1853
sS'woods'
p10
I929
sS'sleep'
p11
I474
sS'spiders'
p12
I1486
sS'hanging'
p13
I3336
sS'mansion'
p14
I3337
sS'frostbite'
p15
I2421
sS'suzana'
p16
I2422
sS'captain'
p17
I1855
sS'saved'
p18
I833
sS'towns'
p19
I2423
sS'aggression'
p20
I3338
sS'marching'
p21
I1487
sS'trolley'
p22
I3339
sS'dehydrated'
p23
I3340
sS'votes'
p24
I3341
sS'feeding'
p25
I3342
sS'buddy'
p26
I3343
sS'eligible'
p27
I3344
sS'swam'
p28
I1234
sS'swan'
p29
I1856
sS'seriously'
p30
I4000
sS'gushed'
p31
I5127
sS'presents'
p32
I1489
sS'bike'
p33
I340
sS'lori'
p34
I3346
sS'voted'
p35
I2424
sS'under'
p36
I607
sS'buyer'
p37
I5030
sS'teaching'
p38
I2425
sS'sorry'
p39
I2426
sS'pride'
p40
I2427
sS'worth'
p41
I1045
sS'pokeballs'
p42
I3347
sS'wondrous'
p43
I3348
sS'ale'
p44
I3760
sS'emerged'
p45
I4002
sS'geology'
p46
I3350
sS'callie'
p47
I2429
sS'blanket'
p48
I1227
sS'hilarious'
p49
I4918
sS'vase'
p50
I1228
sS'gritty'
p51
I3352
sS'every'
p52
I152
sS'jack'
p53
I454
sS'messy'
p54
I3353
sS'scholarship'
p55
I4172
sS'confetti'
p56
I3355
sS'affect'
p57
I3356
sS'hairless'
p58
I3357
sS'screaming'
p59
I1857
sS'gobbled'
p60
I1890
sS'tickets'
p61
I643
sS'discovers'
p62
I3238
sS'school'
p63
I61
sS'basics'
p64
I3359
sS'baking'
p65
I834
sS'prize'
p66
I1491
sS'parrot'
p67
I1858
sS'skills'
p68
I744
sS'ovation'
p69
I2532
sS'venue'
p70
I3361
sS'solution'
p71
I1492
sS'carrie'
p72
I3362
sS'piling'
p73
I2432
sS'convenience'
p74
I3363
sS'nursery'
p75
I1854
sS'red'
p76
I530
sS'employees'
p77
I2433
sS'tutorials'
p78
I3364
sS'heading'
p79
I3365
sS'clothes'
p80
I427
sS'enjoy'
p81
I1046
sS'chew'
p82
I1907
sS'bicycle'
p83
I3367
sS'quilt'
p84
I745
sS'tired'
p85
I256
sS'phones'
p86
I2435
sS'bacon'
p87
I3368
sS'shut'
p88
I1788
sS'batch'
p89
I3192
sS'nail'
p90
I749
sS'surrounding'
p91
I2517
sS'second'
p92
I531
sS'street'
p93
I369
sS'kentucky'
p94
I3371
sS'lacy'
p95
I4313
sS'sailed'
p96
I3372
sS'scraped'
p97
I3373
sS'appetite'
p98
I3375
sS'jessica'
p99
I1494
sS'even'
p100
I452
sS'hide'
p101
I1860
sS'thunder'
p102
I3376
sS'ned'
p103
I1070
sS'cooking'
p104
I835
sS'lizard'
p105
I2575
sS'liberty'
p106
I3378
sS'lights'
p107
I1495
sS'tail'
p108
I3379
sS'above'
p109
I931
sS'zoomed'
p110
I3380
sS'supplies'
p111
I1290
sS'net'
p112
I2438
sS'poorly'
p113
I1861
sS'ever'
p114
I497
sS'disney'
p115
I1862
sS'told'
p116
I93
sS'hobby'
p117
I3272
sS'specialist'
p118
I3381
sS'meg'
p119
I1863
sS'kicked'
p120
I1233
sS'hero'
p121
I2439
sS'screams'
p122
I3382
sS'felicia'
p123
I2372
sS'shattered'
p124
I2440
sS'never'
p125
I144
sS'jasmine'
p126
I2441
sS'stared'
p127
I1496
sS'here'
p128
I932
sS'hundreds'
p129
I1864
sS'met'
p130
I323
sS'blueberries'
p131
I1865
sS'tornado'
p132
I1970
sS'nanny'
p133
I1866
sS'scram'
p134
I5028
sS'active'
p135
I2261
sS'path'
p136
I1497
sS'100'
p137
I1867
sS'cardboard'
p138
I3384
sS'peaceful'
p139
I4267
sS'dry'
p140
I3385
sS'kids'
p141
I104
sS'daughter'
p142
I307
sS'uplifting'
p143
I3386
sS'forum'
p144
I3387
sS'attending'
p145
I4923
sS'auction'
p146
I1869
sS'items'
p147
I1870
sS'study'
p148
I836
sS'climbed'
p149
I1268
sS'loomed'
p150
I3204
sS'doubling'
p151
I3388
sS'adopt'
p152
I1049
sS'credit'
p153
I848
sS'jogging'
p154
I3389
sS'yield'
p155
I3390
sS'smoke'
p156
I1235
sS"s'mores"
p157
I3391
sS'military'
p158
I2446
sS'firing'
p159
I4690
sS'changes'
p160
I1077
sS'midway'
p161
I2448
sS'vacations'
p162
I4924
sS'joshua'
p163
I3392
sS'awarded'
p164
I3213
sS'fantastic'
p165
I1498
sS'campaign'
p166
I1871
sS'secluded'
p167
I3393
sS'straw'
p168
I1872
sS'spooky'
p169
I3394
sS'julie'
p170
I746
sS'explained'
p171
I1873
sS'julia'
p172
I2449
sS'feelings'
p173
I1745
sS'brought'
p174
I532
sS'throat'
p175
I2450
sS'adults'
p176
I4719
sS'cane'
p177
I1874
sS'moral'
p178
I1499
sS'guests'
p179
I1875
sS'drowned'
p180
I2451
sS'stern'
p181
I3396
sS'sprinted'
p182
I3058
sS'actions'
p183
I2452
sS'unit'
p184
I3397
sS'opponents'
p185
I3748
sS'sarah'
p186
I391
sS'plot'
p187
I3398
sS'cheating'
p188
I2454
sS'spoke'
p189
I1051
sS'would'
p190
I65
sS'army'
p191
I3399
sS'<s>'
p192
I2
sS'hospital'
p193
I259
sS'mexico'
p194
I1109
sS'arms'
p195
I2456
sS'craving'
p196
I2167
sS'dumplings'
p197
I3685
sS'sample'
p198
I3403
sS'symphony'
p199
I1500
sS'call'
p200
I453
sS'calm'
p201
I1876
sS'menopausal'
p202
I3404
sS'dairy'
p203
I3405
sS'grahams'
p204
I1501
sS'type'
p205
I2457
sS'until'
p206
I293
sS'calf'
p207
I3407
sS'fractions'
p208
I1502
sS'meowed'
p209
I3799
sS'paperwork'
p210
I2459
sS'erupted'
p211
I4546
sS'relax'
p212
I1052
sS'successful'
p213
I688
sS'oscar'
p214
I1236
sS'hurt'
p215
I696
sS'99'
p216
I3411
sS'phone'
p217
I257
sS'warm'
p218
I1237
sS'adult'
p219
I3412
sS'tying'
p220
I3413
sS'prescription'
p221
I1404
sS'cured'
p222
I3415
sS'hole'
p223
I933
sS'hold'
p224
I1504
sS'blocking'
p225
I3416
sS'spiraled'
p226
I3417
sS'must'
p227
I1878
sS'me'
p228
I119
sS'rotting'
p229
I3418
sS'join'
p230
I404
sS'room'
p231
I196
sS'divorced'
p232
I3419
sS'jess'
p233
I707
sS'pursue'
p234
I2460
sS'setup'
p235
I3421
sS'work'
p236
I88
sS'adjusting'
p237
I3422
sS'roof'
p238
I1505
sS'movies'
p239
I374
sS'graceland'
p240
I1879
sS'henry'
p241
I2461
sS'already'
p242
I1906
sS'altering'
p243
I3424
sS'jamal'
p244
I3425
sS'my'
p245
I44
sS'route'
p246
I1880
sS'cans'
p247
I3689
sS'decorative'
p248
I1238
sS'vodka'
p249
I2463
sS'swell'
p250
I4844
sS'stubbornly'
p251
I2481
sS'estate'
p252
I2464
sS'give'
p253
I568
sS'florida'
p254
I916
sS'dolphin'
p255
I1881
sS'organized'
p256
I3426
sS'honey'
p257
I3428
sS'faked'
p258
I3429
sS'foods'
p259
I837
sS'goodie'
p260
I4976
sS'want'
p261
I212
sS'toward'
p262
I4575
sS'drive'
p263
I496
sS'times'
p264
I868
sS'attract'
p265
I3430
sS'worse'
p266
I2466
sS'ceremony'
p267
I1882
sS'aging'
p268
I3431
sS'end'
p269
I354
sS'turn'
p270
I1883
sS'provide'
p271
I1884
sS'travel'
p272
I1053
sS'song'
p273
I1240
sS'nuts'
p274
I3432
sS'damage'
p275
I2468
sS'machine'
p276
I1054
sS'how'
p277
I121
sS'amazing'
p278
I1055
sS'bunt'
p279
I3434
sS'interview'
p280
I682
sS'gate'
p281
I1507
sS'chase'
p282
I4616
sS'beach'
p283
I132
sS'gamble'
p284
I3435
sS'pizza'
p285
I234
sS'raffle'
p286
I3436
sS'gaming'
p287
I1241
sS'poker'
p288
I2469
sS'beauty'
p289
I935
sS'cuisine'
p290
I3437
sS'mess'
p291
I936
sS'typed'
p292
I3438
sS'ladder'
p293
I3439
sS'after'
p294
I84
sS'confirmed'
p295
I3441
sS'lump'
p296
I3442
sS'screwdriver'
p297
I3443
sS'dinosaurs'
p298
I3444
sS'wrong'
p299
I498
sS'jumping'
p300
I1242
sS'lax'
p301
I3445
sS'lay'
p302
I3446
sS'president'
p303
I1885
sS'law'
p304
I838
sS'lap'
p305
I2470
sS'lesbian'
p306
I3334
sS'types'
p307
I2471
sS'las'
p308
I3448
sS'purchase'
p309
I937
sS'danny'
p310
I1508
sS'third'
p311
I2472
sS'wins'
p312
I428
sS'dealer'
p313
I1983
sS'grant'
p314
I4618
sS'childhood'
p315
I2750
sS'janie'
p316
I2473
sS'cigarettes'
p317
I1319
sS'beeping'
p318
I3452
sS'green'
p319
I939
sS'teammates'
p320
I1886
sS'enter'
p321
I1244
sS'plumbing'
p322
I2474
sS'diary'
p323
I3454
sS'1000'
p324
I2475
sS'order'
p325
I839
sS'wind'
p326
I1887
sS'exotic'
p327
I1509
sS'salon'
p328
I569
sS'executed'
p329
I3456
sS'hatching'
p330
I2888
sS'office'
p331
I341
sS'dreamed'
p332
I1057
sS'over'
p333
I110
sS'fall'
p334
I1142
sS'satisfied'
p335
I3457
sS'jerry'
p336
I2584
sS'vacationing'
p337
I3458
sS'london'
p338
I3460
sS'oven'
p339
I570
sS'pineapple'
p340
I4736
sS'japan'
p341
I1889
sS'resumes'
p342
I4930
sS'bubbles'
p343
I3462
sS'clapped'
p344
I2476
sS'before'
p345
I163
sS'forehead'
p346
I3692
sS'blocks'
p347
I4870
sS'fit'
p348
I940
sS'personal'
p349
I3463
sS'fireplace'
p350
I3464
sS'fix'
p351
I977
sS','
p352
I12
sS'denver'
p353
I1511
sS'writing'
p354
I1493
sS'better'
p355
I277
sS'complex'
p356
I3693
sS'fillings'
p357
I3410
sS'omitted'
p358
I3466
sS'stifling'
p359
I3467
sS'victorious'
p360
I3468
sS'weeks'
p361
I375
sS'carton'
p362
I1891
sS'easier'
p363
I3469
sS'overcome'
p364
I2480
sS'damages'
p365
I3470
sS'theo'
p366
I941
sS'then'
p367
I142
sS'them'
p368
I62
sS'peaches'
p369
I4747
sS'pier'
p370
I3472
sS'sneezing'
p371
I3473
sS'workout'
p372
I3474
sS'safe'
p373
I1512
sS'runny'
p374
I3475
sS'touring'
p375
I4939
sS'break'
p376
I689
sS'band'
p377
I405
sS'roommate'
p378
I1513
sS'therapy'
p379
I1514
sS'owned'
p380
I3210
sS'they'
p381
I21
sS'cinnamon'
p382
I4772
sS'sixteen'
p383
I3476
sS'rental'
p384
I3477
sS'bank'
p385
I1058
sS'bread'
p386
I533
sS'aired'
p387
I1892
sS'meat'
p388
I1515
sS'regularly'
p389
I3239
sS'inventory'
p390
I3479
sS'routines'
p391
I3480
sS'arrested'
p392
I840
sS'chuck'
p393
I1516
sS'toasted'
p394
I2586
sS'choir'
p395
I1517
sS'filling'
p396
I2485
sS'victory'
p397
I2486
sS'reasonable'
p398
I3483
sS'each'
p399
I278
sS'addicted'
p400
I2487
sS'went'
p401
I29
sS'side'
p402
I476
sS'carlos'
p403
I3484
sS'luck'
p404
I841
sS'wheel'
p405
I2588
sS'bright'
p406
I2299
sS'whim'
p407
I3487
sS'financial'
p408
I2855
sS'logs'
p409
I3488
sS'fairly'
p410
I3696
sS'diana'
p411
I1894
sS'series'
p412
I1895
sS'overheating'
p413
I2752
sS'diane'
p414
I1059
sS'allan'
p415
I2862
sS'sled'
p416
I2491
sS'waffle'
p417
I3491
sS'drinker'
p418
I3538
sS'taught'
p419
I889
sS'stabbed'
p420
I3492
sS'forgot'
p421
I665
sS'navy'
p422
I1896
sS'temporary'
p423
I4627
sS'recognizable'
p424
I3495
sS'collector'
p425
I3496
sS'saturday'
p426
I2467
sS'lugged'
p427
I3498
sS'gon'
p428
I3752
sS'network'
p429
I3499
sS'driving'
p430
I201
sS'oprah'
p431
I2497
sS'pokemon'
p432
I1518
sS'useless'
p433
I4507
sS'sighing'
p434
I3500
sS'forty'
p435
I2498
sS'trainers'
p436
I3501
sS'george'
p437
I3502
sS'content'
p438
I3503
sS'keys'
p439
I1519
sS'laid'
p440
I747
sS'daniel'
p441
I1897
sS'braces'
p442
I4943
sS'medicine'
p443
I1898
sS'surprise'
p444
I541
sS'washer'
p445
I644
sS'size'
p446
I1899
sS'sluggish'
p447
I3505
sS'sliding'
p448
I2499
sS'splashed'
p449
I2500
sS'arizona'
p450
I2501
sS'turning'
p451
I1245
sS'assured'
p452
I2502
sS'written'
p453
I3506
sS'tasha'
p454
I1060
sS'tops'
p455
I3507
sS'threatened'
p456
I2503
sS'given'
p457
I1520
sS'free'
p458
I645
sS'fred'
p459
I499
sS'kayla'
p460
I1246
sS'carried'
p461
I2246
sS'cheers'
p462
I3509
sS'elle'
p463
I1776
sS'amazement'
p464
I3278
sS'returning'
p465
I3512
sS'wanted'
p466
I49
sS'knit'
p467
I1521
sS'monkey'
p468
I4945
sS'renee'
p469
I3513
sS'loosened'
p470
I4615
sS'ate'
p471
I206
sS'auditioned'
p472
I3514
sS'distract'
p473
I5221
sS'recovering'
p474
I3515
sS'created'
p475
I1901
sS'starts'
p476
I1902
sS'diabetic'
p477
I3516
sS'raisin'
p478
I3517
sS'days'
p479
I377
sS'scrounge'
p480
I1903
sS'outfits'
p481
I2505
sS'shelved'
p482
I2506
sS'bears'
p483
I1450
sS'licked'
p484
I3518
sS'disturbed'
p485
I2507
sS'isn'
p486
I2508
sS'delved'
p487
I3519
sS'soda'
p488
I1904
sS'kingdom'
p489
I1905
sS'arrived'
p490
I355
sS'app'
p491
I4654
sS'loud'
p492
I500
sS'bite'
p493
I1061
sS'purpose'
p494
I3520
sS'lawns'
p495
I4809
sS'rang'
p496
I942
sS'organize'
p497
I1659
sS'designed'
p498
I4933
sS'characters'
p499
I1952
sS'concentrate'
p500
I5128
sS'jamaica'
p501
I2434
sS'grade'
p502
I501
sS'chased'
p503
I2510
sS'landscapes'
p504
I4717
sS'bandages'
p505
I3522
sS'thrown'
p506
I2963
sS'hearing'
p507
I1523
sS'shopped'
p508
I2511
sS'hook'
p509
I3523
sS'featured'
p510
I3524
sS'floors'
p511
I1248
sS'wrapper'
p512
I2512
sS'another'
p513
I378
sS'rats'
p514
I1908
sS'calorie'
p515
I3525
sS'sewed'
p516
I4301
sS'tuna'
p517
I748
sS'researched'
p518
I1704
sS'timothy'
p519
I1910
sS'magnificent'
p520
I3782
sS'toy'
p521
I608
sS'fence'
p522
I3527
sS'service'
p523
I1524
sS'potty'
p524
I3528
sS'top'
p525
I571
sS'engagement'
p526
I2513
sS'girls'
p527
I943
sS'tow'
p528
I2514
sS'elevator'
p529
I3529
sS'heights'
p530
I1525
sS'needed'
p531
I133
sS'compromise'
p532
I1911
sS'too'
p533
I226
sS'tom'
p534
I71
sS'viral'
p535
I4734
sS'percentage'
p536
I3530
sS'john'
p537
I161
sS'40th'
p538
I2983
sS'dogs'
p539
I534
sS'tod'
p540
I3532
sS'listen'
p541
I1526
sS'chanted'
p542
I3533
sS'curtains'
p543
I3534
sS'ceiling'
p544
I1062
sS'rewards'
p545
I3535
sS'carousel'
p546
I2754
sS'grandchildren'
p547
I3536
sS'happily'
p548
I1912
sS'gym'
p549
I690
sS'brushes'
p550
I1913
sS'serve'
p551
I1914
sS'took'
p552
I92
sS'rejected'
p553
I3537
sS'japanese'
p554
I2515
sS'wrapped'
p555
I2332
sS'noodle'
p556
I3046
sS'cereal'
p557
I1249
sS'clubbing'
p558
I3960
sS'evil'
p559
I3510
sS'kept'
p560
I842
sS'horn'
p561
I3369
sS'crawl'
p562
I3542
sS'horrible'
p563
I1810
sS'sticker'
p564
I3543
sS'boarding'
p565
I3544
sS'chef'
p566
I1047
sS'trek'
p567
I3545
sS'anxiety'
p568
I2516
sS'showed'
p569
I572
sS'fabric'
p570
I3546
sS'hike'
p571
I1250
sS'bloated'
p572
I1528
sS'blinked'
p573
I4108
sS'tree'
p574
I185
sS'likely'
p575
I2518
sS'spaceship'
p576
I3547
sS'shower'
p577
I727
sS'matter'
p578
I2519
sS'classes'
p579
I944
sS'silly'
p580
I3548
sS'lingering'
p581
I3549
sS'tackled'
p582
I3550
sS'wheeler'
p583
I3551
sS'feeling'
p584
I477
sS'mini'
p585
I2520
sS'donkey'
p586
I3552
sS'fashion'
p587
I1252
sS'sees'
p588
I1253
sS'handkerchief'
p589
I3553
sS'exploring'
p590
I4030
sS'ran'
p591
I186
sS'boston'
p592
I1009
sS'ram'
p593
I1529
sS'mind'
p594
I609
sS'mine'
p595
I945
sS'ginger'
p596
I3555
sS'smoker'
p597
I2595
sS'talking'
p598
I691
sS'rat'
p599
I2521
sS'joins'
p600
I3557
sS'manner'
p601
I3558
sS'rap'
p602
I3559
sS'seen'
p603
I646
sS'seem'
p604
I2523
sS'grind'
p605
I3561
sS'seek'
p606
I3562
sS'tells'
p607
I3563
sS'dozen'
p608
I3564
sS'forced'
p609
I1254
sS'forgive'
p610
I4346
sS'necktie'
p611
I1064
sS'dough'
p612
I3565
sS'thoroughly'
p613
I2525
sS'bleachers'
p614
I3566
sS'cope'
p615
I2526
sS'-'
p616
I173
sS'snow'
p617
I610
sS'kaya'
p618
I2527
sS'brandon'
p619
I2238
sS'accelerated'
p620
I4069
sS'recommended'
p621
I1530
sS'practices'
p622
I1793
sS'derek'
p623
I3569
sS'chess'
p624
I1189
sS'doors'
p625
I1754
sS'laughed'
p626
I1066
sS'soldiered'
p627
I3571
sS'rides'
p628
I3572
sS'rider'
p629
I3573
sS'paintbrush'
p630
I3574
sS'crocs'
p631
I2489
sS'blue'
p632
I946
sS'exactly'
p633
I4305
sS'susie'
p634
I1255
sS'though'
p635
I1067
sS'thrilled'
p636
I1068
sS'sue'
p637
I1531
sS'maddy'
p638
I3576
sS'exercised'
p639
I3577
sS'audition'
p640
I844
sS'regular'
p641
I2529
sS'mouth'
p642
I3578
sS'letter'
p643
I947
sS'exercises'
p644
I3580
sS'pest'
p645
I3794
sS'competing'
p646
I1716
sS'coin'
p647
I1256
sS'jean'
p648
I2391
sS'maria'
p649
I573
sS'dummy'
p650
I3582
sS'singer'
p651
I1069
sS'don'
p652
I1532
sS'bullied'
p653
I3583
sS'woodpile'
p654
I2402
sS'alarm'
p655
I1660
sS'camp'
p656
I1920
sS'metal'
p657
I3585
sS'dog'
p658
I60
sS'passes'
p659
I4475
sS'spencer'
p660
I3586
sS'swamp'
p661
I3587
sS'bodybuilder'
p662
I3588
sS'points'
p663
I1534
sS'tech'
p664
I1257
sS'sun'
p665
I4714
sS'swerves'
p666
I3590
sS'breathed'
p667
I2530
sS'voting'
p668
I3591
sS'wheelers'
p669
I3326
sS'annoyed'
p670
I1187
sS'came'
p671
I138
sS'fussy'
p672
I1258
sS'saying'
p673
I1921
sS'selected'
p674
I2531
sS'mvp'
p675
I4862
sS'contacted'
p676
I2660
sS'hunger'
p677
I1922
sS'nodded'
p678
I3594
sS'queen'
p679
I3595
sS'bonnie'
p680
I1923
sS'fingers'
p681
I3377
sS'pops'
p682
I3596
sS'incense'
p683
I3597
sS'colors'
p684
I1924
sS'5000'
p685
I3598
sS'radio'
p686
I1925
sS'stepping'
p687
I2533
sS'participate'
p688
I1535
sS'colleague'
p689
I4158
sS'aspired'
p690
I1926
sS'enjoyed'
p691
I321
sS'recliner'
p692
I3600
sS'count'
p693
I5215
sS'lessons'
p694
I555
sS'witnesses'
p695
I2901
sS'judges'
p696
I1927
sS'busy'
p697
I2287
sS'clicked'
p698
I3601
sS'proposed'
p699
I2662
sS'menu'
p700
I2536
sS'weekends'
p701
I3482
sS'symphonic'
p702
I2537
sS'oatmeal'
p703
I3604
sS'sugar'
p704
I3605
sS'bliss'
p705
I2538
sS'touched'
p706
I1537
sS'rich'
p707
I2539
sS'announce'
p708
I2540
sS'rice'
p709
I949
sS'sporting'
p710
I1956
sS'rica'
p711
I2541
sS'wearing'
p712
I1071
sS'do'
p713
I101
sS'botanist'
p714
I3607
sS'sunglasses'
p715
I2308
sS'400'
p716
I3521
sS'catered'
p717
I3610
sS'ringing'
p718
I5100
sS'watch'
p719
I574
sS'glamorous'
p720
I2542
sS'legs'
p721
I2543
sS'coast'
p722
I3611
sS'pocket'
p723
I1259
sS'amazon'
p724
I1260
sS'12'
p725
I2544
sS'haunted'
p726
I1928
sS'new'
p727
I25
sS'report'
p728
I752
sS'frying'
p729
I2545
sS'nasty'
p730
I1929
sS'dr'
p731
I2546
sS'nurse'
p732
I1674
sS'appetizers'
p733
I3358
sS'hall'
p734
I2547
sS'runs'
p735
I1072
sS'switched'
p736
I3614
sS'bar'
p737
I950
sS'greens'
p738
I2548
sS'countries'
p739
I2549
sS'fields'
p740
I3615
sS'rowing'
p741
I3616
sS'anxiously'
p742
I3617
sS'scream'
p743
I5216
sS'patch'
p744
I3618
sS'peroxide'
p745
I3619
sS'bag'
p746
I456
sS'bad'
p747
I134
sS'troop'
p748
I2323
sS'shots'
p749
I3620
sS'favors'
p750
I4042
sS'grilled'
p751
I2552
sS'steak'
p752
I2553
sS'boarded'
p753
I3207
sS'scrubbed'
p754
I3623
sS'respond'
p755
I4934
sS'playstation'
p756
I2554
sS'blew'
p757
I1073
sS'decides'
p758
I322
sS'disaster'
p759
I2555
sS'fair'
p760
I1539
sS'habit'
p761
I3624
sS'shampoo'
p762
I4963
sS'fluffy'
p763
I3625
sS'lemonade'
p764
I3217
sS'observed'
p765
I3628
sS'checks'
p766
I3629
sS'decided'
p767
I22
sS'result'
p768
I1261
sS'cattle'
p769
I1930
sS'fail'
p770
I2556
sS'windy'
p771
I4758
sS'bee'
p772
I1795
sS'scottish'
p773
I5161
sS'best'
p774
I149
sS'angelique'
p775
I2558
sS'said'
p776
I114
sS'swore'
p777
I5031
sS'temptation'
p778
I2559
sS'lots'
p779
I692
sS'dishonesty'
p780
I3050
sS'away'
p781
I164
sS'feline'
p782
I3630
sS'shaved'
p783
I2731
sS'rushing'
p784
I3631
sS'grandmother'
p785
I1932
sS'mud'
p786
I611
sS'mug'
p787
I3632
sS'score'
p788
I1933
sS'olympics'
p789
I1934
sS'finger'
p790
I1935
sS'pets'
p791
I3633
sS'example'
p792
I3634
sS'yogurt'
p793
I3635
sS'shaves'
p794
I1543
sS'approach'
p795
I951
sS'pirate'
p796
I3636
sS'360'
p797
I3637
sS'letting'
p798
I4647
sS'we'
p799
I85
sS'men'
p800
I1936
sS'wears'
p801
I2560
sS'nature'
p802
I1544
sS'rolled'
p803
I1545
sS'smelled'
p804
I2561
sS'buckeyes'
p805
I2562
sS'however'
p806
I379
sS'boss'
p807
I536
sS'toothbrush'
p808
I3639
sS'add'
p809
I5142
sS'aquarium'
p810
I647
sS'poisoning'
p811
I1937
sS'news'
p812
I1262
sS'picking'
p813
I952
sS'debt'
p814
I1938
sS'sipped'
p815
I3640
sS'roller'
p816
I575
sS'kitchen'
p817
I294
sS'suggested'
p818
I1939
sS'received'
p819
I1138
sS'protect'
p820
I3642
sS'accident'
p821
I537
sS'assistants'
p822
I3241
sS'cow'
p823
I3643
sS'reported'
p824
I2442
sS'meredith'
p825
I1546
sS'country'
p826
I308
sS'ill'
p827
I1547
sS'jelly'
p828
I1263
sS'demanded'
p829
I2382
sS'players'
p830
I2564
sS'negative'
p831
I3644
sS'layered'
p832
I2565
sS'games'
p833
I342
sS'planned'
p834
I953
sS'brad'
p835
I954
sS'uni'
p836
I2566
sS'argue'
p837
I3645
sS'confronted'
p838
I3646
sS'asked'
p839
I120
sS'laryngitis'
p840
I3647
sS'switching'
p841
I3649
sS'pre'
p842
I2890
sS'skill'
p843
I5134
sS'tough'
p844
I1074
sS'appeared'
p845
I2567
sS'had'
p846
I16
sS'betting'
p847
I3651
sS'steaks'
p848
I3652
sS'amazingly'
p849
I3775
sS'height'
p850
I3653
sS'offerings'
p851
I3654
sS'hers'
p852
I2443
sS'karen'
p853
I612
sS'lanterns'
p854
I3656
sS'paused'
p855
I2711
sS'towels'
p856
I3657
sS'eventful'
p857
I4014
sS'tony'
p858
I1548
sS'loaded'
p859
I2569
sS'blonde'
p860
I3658
sS'trust'
p861
I3659
sS'mph'
p862
I4971
sS'ana'
p863
I1114
sS'conference'
p864
I3661
sS'putt'
p865
I1549
sS'bathroom'
p866
I479
sS'pedaling'
p867
I3662
sS'asks'
p868
I1940
sS'pinball'
p869
I1550
sS'union'
p870
I3663
sS'binge'
p871
I1941
sS'three'
p872
I480
sS'been'
p873
I74
sS'.'
p874
I4
sS'drowsy'
p875
I3664
sS'confident'
p876
I1551
sS'beer'
p877
I955
sS'much'
p878
I183
sS'cousins'
p879
I3665
sS'afloat'
p880
I5011
sS'interest'
p881
I2570
sS'basic'
p882
I3667
sS'expected'
p883
I1552
sS'flexible'
p884
I5212
sS'entered'
p885
I846
sS'lovely'
p886
I1264
sS'tallest'
p887
I2571
sS'pro'
p888
I3669
sS'idol'
p889
I3670
sS'threw'
p890
I847
sS'website'
p891
I1942
sS'life'
p892
I192
sS'families'
p893
I3671
sS'easy'
p894
I3672
sS'relaxing'
p895
I1265
sS'hiring'
p896
I3248
sS'drugs'
p897
I1943
sS'accidently'
p898
I3674
sS'worker'
p899
I1266
sS'ariana'
p900
I1075
sS'lukewarm'
p901
I5249
sS'dave'
p902
I3675
sS'craft'
p903
I1267
sS'toboggan'
p904
I3676
sS'child'
p905
I754
sS'catch'
p906
I956
sS'worked'
p907
I202
sS'regretted'
p908
I2572
sS'lionel'
p909
I1553
sS'applied'
p910
I693
sS'13th'
p911
I4051
sS'save'
p912
I1554
sS'tank'
p913
I648
sS'contemplated'
p914
I3679
sS'prestigious'
p915
I4052
sS'intimate'
p916
I4800
sS'professionally'
p917
I2573
sS'air'
p918
I1076
sS'ugly'
p919
I2574
sS'near'
p920
I705
sS'melted'
p921
I3681
sS'hates'
p922
I1555
sS'itinerary'
p923
I1944
sS'aid'
p924
I2576
sS'cracked'
p925
I3683
sS'voice'
p926
I1556
sS'leaves'
p927
I1557
sS'launched'
p928
I1558
sS'mistake'
p929
I649
sS'seven'
p930
I1945
sS'changed'
p931
I1048
sS'olympic'
p932
I3867
sS'played'
p933
I260
sS'iq'
p934
I3402
sS'is'
p935
I55
sS'dumped'
p936
I3408
sS'bobblehead'
p937
I3686
sS'it'
p938
I17
sS'sting'
p939
I2577
sS'player'
p940
I538
sS'90'
p941
I3688
sS'brake'
p942
I1946
sS'cone'
p943
I2462
sS'jest'
p944
I934
sS'in'
p945
I15
sS'allison'
p946
I2579
sS'violin'
p947
I1559
sS'shift'
p948
I4609
sS'mouse'
p949
I2580
sS'sells'
p950
I2050
sS'beak'
p951
I3690
sS'if'
p952
I197
sS'grown'
p953
I1561
sS'babied'
p954
I3691
sS'damaged'
p955
I2581
sS'mowing'
p956
I2582
sS'perform'
p957
I1562
sS'things'
p958
I650
sS'make'
p959
I67
sS'toaster'
p960
I2583
sS'polaroid'
p961
I1947
sS'amount'
p962
I1150
sS'beside'
p963
I2477
sS'clint'
p964
I1738
sS'healthier'
p965
I1679
sS'batting'
p966
I1563
sS'babies'
p967
I1948
sS'plates'
p968
I3695
sS'several'
p969
I576
sS'showing'
p970
I1831
sS'horrified'
p971
I3321
sS'hank'
p972
I1893
sS'independent'
p973
I3489
sS'moose'
p974
I2589
sS'doorbell'
p975
I3292
sS'cindy'
p976
I1564
sS'bookcase'
p977
I2590
sS'theodore'
p978
I3698
sS'nic'
p979
I1949
sS'ella'
p980
I1565
sS'published'
p981
I1950
sS'rail'
p982
I2591
sS'rain'
p983
I343
sS'hand'
p984
I755
sS'delight'
p985
I2592
sS'heartbroken'
p986
I2627
sS'fridays'
p987
I3699
sS'kim'
p988
I1522
sS'supper'
p989
I3700
sS'jealous'
p990
I2593
sS'kia'
p991
I849
sS'insisted'
p992
I3701
sS'opportunity'
p993
I3702
sS'cocoa'
p994
I3703
sS'kid'
p995
I694
sS'butter'
p996
I2594
sS'prescribed'
p997
I1953
sS'vermont'
p998
I3704
sS'practiced'
p999
I344
sS'lucas'
p1000
I1270
sS'charlie'
p1001
I429
sS'failing'
p1002
I1954
sS'kyle'
p1003
I843
sS'ocean'
p1004
I957
sS'savings'
p1005
I1566
sS'client'
p1006
I1078
sS'greatest'
p1007
I3705
sS'mother'
p1008
I407
sS'the'
p1009
I5
sS'musical'
p1010
I1955
sS'financing'
p1011
I3706
sS'left'
p1012
I246
sS'snowman'
p1013
I1181
sS'opinions'
p1014
I2597
sS'agency'
p1015
I3226
sS'impression'
p1016
I1987
sS'just'
p1017
I154
sS'pots'
p1018
I3707
sS'athletic'
p1019
I3708
sS'laptop'
p1020
I751
sS'sleepy'
p1021
I2599
sS'envious'
p1022
I2600
sS'crew'
p1023
I2479
sS'overcoming'
p1024
I2766
sS'assigned'
p1025
I2601
sS'grades'
p1026
I1957
sS'financially'
p1027
I2602
sS'thanks'
p1028
I2603
sS'human'
p1029
I2604
sS'depart'
p1030
I2605
sS'yes'
p1031
I651
sS'yet'
p1032
I1079
sS'wandered'
p1033
I3709
sS'handshake'
p1034
I3710
sS'enters'
p1035
I2606
sS'hills'
p1036
I1958
sS'candidate'
p1037
I2607
sS'hissed'
p1038
I3830
sS'photographer'
p1039
I850
sS'ease'
p1040
I1959
sS'slices'
p1041
I3711
sS'josh'
p1042
I478
sS'resembled'
p1043
I3712
sS'counted'
p1044
I3713
sS'pharmacy'
p1045
I1271
sS'spread'
p1046
I2608
sS'brainstorming'
p1047
I3668
sS'board'
p1048
I1568
sS'beloved'
p1049
I2609
sS'prison'
p1050
I1960
sS'workers'
p1051
I5182
sS'has'
p1052
I116
sS'hat'
p1053
I1569
sS'humanity'
p1054
I3715
sS'gave'
p1055
I213
sS'thankfully'
p1056
I2610
sS'mocked'
p1057
I3716
sS'popping'
p1058
I3717
sS'skeptical'
p1059
I3063
sS'vanessa'
p1060
I1272
sS'bands'
p1061
I3718
sS'breaks'
p1062
I757
sS'joanna'
p1063
I2241
sS'sprint'
p1064
I4670
sS'tear'
p1065
I5009
sS'possibly'
p1066
I3719
sS'boxes'
p1067
I2612
sS'gameboy'
p1068
I2613
sS'suffering'
p1069
I2614
sS'birth'
p1070
I3720
sS'performance'
p1071
I544
sS'judge'
p1072
I1273
sS'burns'
p1073
I2615
sS'burnt'
p1074
I3721
sS'dreams'
p1075
I1571
sS'apart'
p1076
I1080
sS'shoulder'
p1077
I3722
sS'sliced'
p1078
I2616
sS'nora'
p1079
I2617
sS'gift'
p1080
I503
sS'bobby'
p1081
I408
sS'cooler'
p1082
I3723
sS'pharmacist'
p1083
I3724
sS'grizzly'
p1084
I3725
sS'performing'
p1085
I1962
sS'greener'
p1086
I2618
sS'50'
p1087
I2619
sS'niels'
p1088
I1963
sS'xbox'
p1089
I1964
sS'specific'
p1090
I3726
sS'pavement'
p1091
I3727
sS'ninety'
p1092
I3056
sS'steps'
p1093
I1965
sS'officer'
p1094
I577
sS'meringue'
p1095
I3729
sS'night'
p1096
I117
sS'hung'
p1097
I2620
sS'overslept'
p1098
I3730
sS'surf'
p1099
I2621
sS'attorney'
p1100
I3731
sS'right'
p1101
I539
sS'old'
p1102
I187
sS'creek'
p1103
I3732
sS'crowd'
p1104
I481
sS'people'
p1105
I295
sS'manual'
p1106
I3733
sS'successfully'
p1107
I959
sS'proudly'
p1108
I1966
sS'somehow'
p1109
I3734
sS'dead'
p1110
I1274
sS'jennifer'
p1111
I2622
sS'10th'
p1112
I3735
sS'born'
p1113
I1573
sS'donald'
p1114
I1275
sS'printer'
p1115
I960
sS'scrabble'
p1116
I1432
sS'escape'
p1117
I2623
sS'dear'
p1118
I3738
sS'invitations'
p1119
I4895
sS'guess'
p1120
I3739
sS'perfected'
p1121
I3740
sS'tripped'
p1122
I3741
sS'deaf'
p1123
I3743
sS'humor'
p1124
I3744
sS'trace'
p1125
I4115
sS'for'
p1126
I19
sS'bottom'
p1127
I1968
sS'purple'
p1128
I1969
sS'entering'
p1129
I5124
sS'opposite'
p1130
I3745
sS'ice'
p1131
I309
sS'creative'
p1132
I1276
sS'everything'
p1133
I859
sS'icy'
p1134
I3746
sS'asking'
p1135
I1971
sS'motorist'
p1136
I3747
sS'denied'
p1137
I2625
sS'pattern'
p1138
I5047
sS'beating'
p1139
I4477
sS'adorable'
p1140
I2626
sS'christmas'
p1141
I504
sS'holiday'
p1142
I5085
sS'sewing'
p1143
I1972
sS'cora'
p1144
I1623
sS'signaled'
p1145
I5130
sS'dunkin'
p1146
I2629
sS'xander'
p1147
I1574
sS'corn'
p1148
I961
sS'burn'
p1149
I1575
sS'giddy'
p1150
I5242
sS'kickball'
p1151
I1081
sS'peed'
p1152
I3750
sS'graduates'
p1153
I2630
sS'discount'
p1154
I3751
sS'substituted'
p1155
I2631
sS'bolt'
p1156
I3753
sS'graduated'
p1157
I1082
sS'850'
p1158
I3754
sS'post'
p1159
I3755
sS'super'
p1160
I3756
sS'valium'
p1161
I2632
sS'chapter'
p1162
I5173
sS'breaded'
p1163
I1973
sS'diner'
p1164
I2633
sS'transmission'
p1165
I4780
sS'meow'
p1166
I2639
sS'dollars'
p1167
I579
sS'months'
p1168
I356
sS'choke'
p1169
I3759
sS'promoted'
p1170
I5094
sS'dinner'
p1171
I135
sS'dined'
p1172
I2634
sS'afternoon'
p1173
I1083
sS'horizon'
p1174
I2635
sS'ladybugs'
p1175
I2636
sS'emilia'
p1176
I3947
sS'cherise'
p1177
I3579
sS'sweater'
p1178
I759
sS'automatically'
p1179
I3762
sS'nerve'
p1180
I2638
sS'raised'
p1181
I1974
sS'froze'
p1182
I3763
sS'lied'
p1183
I3764
sS'tia'
p1184
I4716
sS'civil'
p1185
I3765
sS'sock'
p1186
I3766
sS'puzzle'
p1187
I3767
sS'float'
p1188
I1279
sS'delighted'
p1189
I1084
sS'bath'
p1190
I580
sS'down'
p1191
I102
sS'thankful'
p1192
I1108
sS'jenn'
p1193
I1975
sS'jena'
p1194
I3768
sS'dean'
p1195
I695
sS'renovating'
p1196
I2730
sS'frightened'
p1197
I3770
sS'rounds'
p1198
I3771
sS'travels'
p1199
I2955
sS'parade'
p1200
I732
sS'cleared'
p1201
I2753
sS'deal'
p1202
I578
sS'waits'
p1203
I3774
sS'medal'
p1204
I1998
sS'support'
p1205
I2640
sS'tennis'
p1206
I852
sS'inspected'
p1207
I3776
sS'fight'
p1208
I509
sS'avail'
p1209
I1619
sS'stuck'
p1210
I1976
sS'fought'
p1211
I2642
sS'lyrics'
p1212
I4686
sS'way'
p1213
I235
sS'wax'
p1214
I2643
sS'jane'
p1215
I286
sS'music'
p1216
I380
sS'winnings'
p1217
I3778
sS'was'
p1218
I8
sS'war'
p1219
I853
sS'happy'
p1220
I56
sS'head'
p1221
I540
sS'washed'
p1222
I3779
sS'amateur'
p1223
I3325
sS'overjoyed'
p1224
I3781
sS'offer'
p1225
I2645
sS'attempted'
p1226
I2789
sS'becoming'
p1227
I3783
sS'fireworks'
p1228
I3784
sS'forever'
p1229
I2624
sS'leilani'
p1230
I1576
sS'marinara'
p1231
I2647
sS'melanie'
p1232
I2268
sS'needles'
p1233
I2648
sS'hear'
p1234
I613
sS'ambitious'
p1235
I2649
sS'fastest'
p1236
I2650
sS'astonished'
p1237
I3786
sS'removed'
p1238
I1280
sS'true'
p1239
I1977
sS'outsmart'
p1240
I3787
sS'neighboring'
p1241
I5004
sS'powder'
p1242
I4048
sS'discipleship'
p1243
I4368
sS'emil'
p1244
I3789
sS'happen'
p1245
I1979
sS'astounded'
p1246
I3790
sS'spun'
p1247
I3791
sS'sermons'
p1248
I2568
sS'inside'
p1249
I581
sS'fills'
p1250
I1577
sS'bargain'
p1251
I3793
sS'stores'
p1252
I1980
sS'tell'
p1253
I854
sS'crystal'
p1254
I1281
sS'calories'
p1255
I3433
sS'decorate'
p1256
I2651
sS'daughters'
p1257
I4626
sS'gyro'
p1258
I1615
sS'smashed'
p1259
I2652
sS'hassle'
p1260
I3736
sS'daddy'
p1261
I1578
sS'desert'
p1262
I4744
sS'temper'
p1263
I3796
sS'<unk>'
p1264
I1
sS'separated'
p1265
I1982
sS'later'
p1266
I318
sS'hotter'
p1267
I3798
sS'ecstatic'
p1268
I3800
sS'stronger'
p1269
I2653
sS'tournament'
p1270
I1282
sS'shined'
p1271
I3801
sS'passwords'
p1272
I3374
sS'sale'
p1273
I430
sS'guessed'
p1274
I3803
sS'promised'
p1275
I1283
sS'fashioned'
p1276
I3804
sS'candle'
p1277
I1742
sS'accounting'
p1278
I3805
sS'awhile'
p1279
I2611
sS'mrs'
p1280
I1579
sS'check'
p1281
I981
sS'constructed'
p1282
I3806
sS'nh'
p1283
I2655
sS'pipe'
p1284
I3807
sS'vista'
p1285
I3808
sS'faithful'
p1286
I2656
sS'floor'
p1287
I514
sS'na'
p1288
I3810
sS'when'
p1289
I40
sS'handed'
p1290
I1580
sS'snakes'
p1291
I3811
sS'tim'
p1292
I171
sS'interested'
p1293
I1087
sS'role'
p1294
I3813
sS'holding'
p1295
I1984
sS'brings'
p1296
I2657
sS'test'
p1297
I155
sS'tie'
p1298
I855
sS'smell'
p1299
I962
sS'roll'
p1300
I3814
sS'realize'
p1301
I1581
sS'pen'
p1302
I3815
sS'scored'
p1303
I1582
sS'picture'
p1304
I856
sS"'s"
p1305
I38
sS'brothers'
p1306
I2658
sS'toad'
p1307
I3816
sS'juices'
p1308
I4225
sS'why'
p1309
I760
sS'football'
p1310
I482
sS'update'
p1311
I2659
sS'diet'
p1312
I457
sS'transported'
p1313
I3817
sS'brief'
p1314
I3818
sS'mesmerized'
p1315
I2326
sS"'d"
p1316
I199
sS'invested'
p1317
I3819
sS'hollered'
p1318
I3820
sS'maureen'
p1319
I1088
sS'smelling'
p1320
I2762
sS'authorities'
p1321
I3822
sS'attendees'
p1322
I3823
sS"'m"
p1323
I2113
sS'aware'
p1324
I1877
sS'weekend'
p1325
I761
sS'died'
p1326
I857
sS'babysitting'
p1327
I1583
sS'jones'
p1328
I3824
sS'younger'
p1329
I2661
sS'longer'
p1330
I550
sS'glass'
p1331
I1986
sS'sniffed'
p1332
I3825
sS'landed'
p1333
I963
sS'together'
p1334
I184
sS'jacket'
p1335
I858
sS'carts'
p1336
I3826
sS'rough'
p1337
I2677
sS'longed'
p1338
I1584
sS'damion'
p1339
I3234
sS'teeth'
p1340
I1359
sS'someplace'
p1341
I4793
sS'debate'
p1342
I3874
sS'paced'
p1343
I2663
sS'songs'
p1344
I2123
sS'neighbors'
p1345
I1286
sS'detective'
p1346
I3829
sS'coach'
p1347
I762
sS'managed'
p1348
I964
sS'lemons'
p1349
I2496
sS'ambulance'
p1350
I1638
sS'dance'
p1351
I409
sS'skip'
p1352
I614
sS'rob'
p1353
I1287
sS'particular'
p1354
I3831
sS'rod'
p1355
I3832
sS'focus'
p1356
I3833
sS'deliveries'
p1357
I3834
sS'sympathetic'
p1358
I3835
sS'laura'
p1359
I410
sS'yapping'
p1360
I4325
sS'manager'
p1361
I697
sS'mile'
p1362
I1089
sS'microwave'
p1363
I1585
sS'grateful'
p1364
I1989
sS'skiing'
p1365
I652
sS'battle'
p1366
I1990
sS'chair'
p1367
I1991
sS'prop'
p1368
I3071
sS'milk'
p1369
I542
sS'row'
p1370
I3837
sS'vet'
p1371
I698
sS'anticipation'
p1372
I1992
sS'bitter'
p1373
I3531
sS'bearing'
p1374
I5228
sS'cherished'
p1375
I4704
sS'father'
p1376
I345
sS'disgusting'
p1377
I2666
sS'answered'
p1378
I1288
sS'finally'
p1379
I72
sS'behave'
p1380
I3839
sS'dissatisfied'
p1381
I3840
sS'connecting'
p1382
I3841
sS'suffered'
p1383
I2667
sS'retreat'
p1384
I3842
sS'surrendered'
p1385
I3843
sS'brown'
p1386
I1688
sS'smartphone'
p1387
I3845
sS'1250'
p1388
I5140
sS'hannah'
p1389
I3847
sS'recipe'
p1390
I512
sS'conquering'
p1391
I2989
sS'confidence'
p1392
I3074
sS'brownie'
p1393
I861
sS'tacos'
p1394
I1090
sS'brooke'
p1395
I3849
sS'congregation'
p1396
I3850
sS'vegas'
p1397
I3851
sS'sparkly'
p1398
I3852
sS'kitten'
p1399
I615
sS'cook'
p1400
I505
sS'word'
p1401
I1389
sS'trouble'
p1402
I653
sS'eats'
p1403
I1510
sS'minute'
p1404
I1289
sS'cool'
p1405
I1091
sS'aggressively'
p1406
I3855
sS'cooks'
p1407
I2670
sS'gambled'
p1408
I3856
sS'clouds'
p1409
I2943
sS'presented'
p1410
I3858
sS'did'
p1411
I51
sS'teas'
p1412
I2161
sS'jamie'
p1413
I1587
sS'cheapest'
p1414
I3420
sS'brother'
p1415
I737
sS'gum'
p1416
I862
sS'forgets'
p1417
I3861
sS'leave'
p1418
I654
sS'item'
p1419
I3862
sS'subway'
p1420
I2672
sS'scores'
p1421
I3863
sS'team'
p1422
I141
sS'warren'
p1423
I2315
sS'lever'
p1424
I3865
sS'guy'
p1425
I1993
sS'bonfire'
p1426
I2673
sS'shave'
p1427
I2174
sS'bleed'
p1428
I3866
sS'pork'
p1429
I3471
sS'talked'
p1430
I764
sS'says'
p1431
I2674
sS'occurrence'
p1432
I2675
sS'27'
p1433
I4118
sS'attic'
p1434
I3869
sS'sigh'
p1435
I1995
sS'sign'
p1436
I1092
sS'cost'
p1437
I1996
sS'chopping'
p1438
I3870
sS'trisha'
p1439
I1005
sS'run'
p1440
I310
sS'bake'
p1441
I700
sS'chicken'
p1442
I1791
sS'drinks'
p1443
I1997
sS'bumper'
p1444
I4469
sS'eliza'
p1445
I1093
sS'disease'
p1446
I2348
sS'realizing'
p1447
I2678
sS'rome'
p1448
I3320
sS'current'
p1449
I2679
sS'300'
p1450
I3875
sS'goes'
p1451
I506
sS'pine'
p1452
I2715
sS'shared'
p1453
I2637
sS'falling'
p1454
I1588
sS'staff'
p1455
I1572
sS'gazebo'
p1456
I4497
sS'dental'
p1457
I3877
sS'filled'
p1458
I1291
sS'supporting'
p1459
I3878
sS'angelina'
p1460
I2682
sS'jury'
p1461
I2683
sS'wrestler'
p1462
I1589
sS'bandwagon'
p1463
I2684
sS'grandparents'
p1464
I2685
sS'clerk'
p1465
I1999
sS'makeup'
p1466
I701
sS'handyman'
p1467
I2000
sS'sparky'
p1468
I5017
sS'rug'
p1469
I3881
sS'water'
p1470
I146
sS'gossiping'
p1471
I3423
sS'snack'
p1472
I2781
sS'baseball'
p1473
I1016
sS'address'
p1474
I3883
sS'alone'
p1475
I600
sS'based'
p1476
I3884
sS'along'
p1477
I1590
sS'teacher'
p1478
I175
sS'change'
p1479
I864
sS'wait'
p1480
I193
sS'box'
p1481
I616
sS'boy'
p1482
I287
sS'enroll'
p1483
I3885
sS'ref'
p1484
I4920
sS'china'
p1485
I3383
sS'thirty'
p1486
I3887
sS'impatiently'
p1487
I2686
sS'healthy'
p1488
I582
sS'root'
p1489
I2687
sS'studied'
p1490
I865
sS'guilty'
p1491
I1095
sS'united'
p1492
I4860
sS'shelia'
p1493
I2688
sS'bow'
p1494
I3042
sS'trial'
p1495
I1591
sS'accomplished'
p1496
I2689
sS'sprouted'
p1497
I3890
sS'diagnosed'
p1498
I765
sS'jaw'
p1499
I3891
sS'seams'
p1500
I2690
sS'bob'
p1501
I139
sS'shook'
p1502
I3892
sS'measuring'
p1503
I4229
sS'pillow'
p1504
I766
sS'stew'
p1505
I2001
sS'teenage'
p1506
I2691
sS'love'
p1507
I325
sS'consolation'
p1508
I3893
sS'hiking'
p1509
I2002
sS'extra'
p1510
I767
sS'credited'
p1511
I5020
sS'pony'
p1512
I3895
sS'prefer'
p1513
I2692
sS'cared'
p1514
I4143
sS'kayak'
p1515
I3898
sS'losing'
p1516
I3899
sS'qualified'
p1517
I3980
sS'controls'
p1518
I2693
sS'pleasantly'
p1519
I3900
sS'fake'
p1520
I3901
sS'touchdown'
p1521
I3902
sS'embarrassing'
p1522
I2694
sS'earlier'
p1523
I3903
sS'employer'
p1524
I1769
sS'market'
p1525
I1592
sS'transplant'
p1526
I3904
sS'everybody'
p1527
I2003
sS'darnell'
p1528
I1177
sS'troops'
p1529
I3906
sS'working'
p1530
I227
sS'brighter'
p1531
I3907
sS'ariel'
p1532
I2697
sS'positive'
p1533
I2698
sS'angry'
p1534
I702
sS'stated'
p1535
I2946
sS'visit'
p1536
I431
sS'only'
p1537
I326
sS'angela'
p1538
I2699
sS'abroad'
p1539
I1593
sS'crowdsourcing'
p1540
I3427
sS'stairs'
p1541
I3137
sS'live'
p1542
I655
sS'planted'
p1543
I1457
sS'andy'
p1544
I267
sS'marry'
p1545
I3122
sS'wondering'
p1546
I3909
sS'memory'
p1547
I2700
sS'candidates'
p1548
I3236
sS'thru'
p1549
I3910
sS'eighty'
p1550
I3911
sS'today'
p1551
I656
sS'loving'
p1552
I3912
sS'scratched'
p1553
I3913
sS'dismay'
p1554
I2702
sS'entrance'
p1555
I2703
sS'kerry'
p1556
I1097
sS'faith'
p1557
I3914
sS'club'
p1558
I432
sS'laughs'
p1559
I4036
sS'fruits'
p1560
I2704
sS'claus'
p1561
I1294
sS'cashier'
p1562
I2006
sS'wildlife'
p1563
I3078
sS'clients'
p1564
I4849
sS'chocolate'
p1565
I866
sS'downtown'
p1566
I2705
sS'bold'
p1567
I2628
sS'everywhere'
p1568
I583
sS'accept'
p1569
I3916
sS'sunscreen'
p1570
I2147
sS'effort'
p1571
I3112
sS'yelling'
p1572
I3917
sS'fly'
p1573
I1595
sS"elvis'house"
p1574
I3929
sS'pageant'
p1575
I3918
sS'deserved'
p1576
I2706
sS'decked'
p1577
I1596
sS'tokyo'
p1578
I3919
sS'car'
p1579
I98
sS'originally'
p1580
I2707
sS'netflix'
p1581
I1747
sS'flu'
p1582
I2008
sS'soul'
p1583
I3920
sS'jude'
p1584
I703
sS'cat'
p1585
I236
sS'reviews'
p1586
I1597
sS'soup'
p1587
I560
sS'judy'
p1588
I867
sS'gathers'
p1589
I3921
sS'can'
p1590
I704
sS'cam'
p1591
I1098
sS'growing'
p1592
I1099
sS'making'
p1593
I288
sS'arrive'
p1594
I1598
sS'texted'
p1595
I3922
sS'social'
p1596
I2709
sS'heart'
p1597
I1740
sS'crazy'
p1598
I2710
sS'performer'
p1599
I3923
sS'nursing'
p1600
I2010
sS'figure'
p1601
I1599
sS'lobbying'
p1602
I3844
sS'december'
p1603
I2011
sS'chip'
p1604
I1600
sS'sense'
p1605
I4384
sS'confused'
p1606
I2300
sS'agent'
p1607
I1297
sS'concierge'
p1608
I2081
sS'heard'
p1609
I327
sS'stroke'
p1610
I3925
sS'cube'
p1611
I5027
sS'chin'
p1612
I3927
sS'dropped'
p1613
I706
sS'allowed'
p1614
I1100
sS'curb'
p1615
I3097
sS'spa'
p1616
I2712
sS'dennis'
p1617
I3928
sS'clothing'
p1618
I2012
sS'listens'
p1619
I2713
sS'pink'
p1620
I1101
sS'rays'
p1621
I3930
sS'requirements'
p1622
I3931
sS'winter'
p1623
I1102
sS'recited'
p1624
I3932
sS'fortunately'
p1625
I2714
sS'buttered'
p1626
I3175
sS'secured'
p1627
I3934
sS'floated'
p1628
I3935
sS'freezer'
p1629
I922
sS'write'
p1630
I584
sS'sunday'
p1631
I2716
sS'hamburgers'
p1632
I2717
sS'pure'
p1633
I3937
sS'familiar'
p1634
I3938
sS'greets'
p1635
I3939
sS'whistle'
p1636
I4535
sS'flavored'
p1637
I3940
sS'map'
p1638
I1298
sS'hearted'
p1639
I3277
sS'laundry'
p1640
I2718
sS'skates'
p1641
I3941
sS'shooter'
p1642
I3889
sS'information'
p1643
I3943
sS'may'
p1644
I2014
sS'max'
p1645
I1103
sS'granddaughter'
p1646
I1299
sS'spot'
p1647
I296
sS'needs'
p1648
I1692
sS'crashed'
p1649
I1300
sS'mac'
p1650
I3946
sS'birthday'
p1651
I248
sS'tipped'
p1652
I2719
sS'mad'
p1653
I328
sS'gamer'
p1654
I5114
sS'date'
p1655
I279
sS'such'
p1656
I1105
sS'journals'
p1657
I3461
sS'grow'
p1658
I965
sS'man'
p1659
I111
sS'classroom'
p1660
I2015
sS'stress'
p1661
I3949
sS'surfing'
p1662
I2720
sS'branches'
p1663
I3950
sS'remember'
p1664
I1602
sS'conscious'
p1665
I2721
sS'whenever'
p1666
I2016
sS'candles'
p1667
I2017
sS'wheelchair'
p1668
I3951
sS'desperation'
p1669
I3952
sS'appalled'
p1670
I4640
sS'complaining'
p1671
I3953
sS'switch'
p1672
I3954
sS'suet'
p1673
I2360
sS'jail'
p1674
I1026
sS'crept'
p1675
I3955
sS'swollen'
p1676
I2722
sS'tall'
p1677
I966
sS'kurt'
p1678
I3956
sS'pulled'
p1679
I543
sS'topographical'
p1680
I3957
sS'talk'
p1681
I657
sS'cute'
p1682
I3958
sS'totino'
p1683
I2790
sS'serving'
p1684
I3959
sS'shoes'
p1685
I658
sS'repair'
p1686
I3083
sS'webpage'
p1687
I3961
sS'hugh'
p1688
I4389
sS'pointed'
p1689
I2018
sS'haircut'
p1690
I1302
sS'displayed'
p1691
I2359
sS'pillowcase'
p1692
I3962
sS'hurriedly'
p1693
I3908
sS'years'
p1694
I174
sS'ended'
p1695
I221
sS'dismissed'
p1696
I2921
sS'shake'
p1697
I3964
sS'argued'
p1698
I2019
sS'cold'
p1699
I458
sS'still'
p1700
I262
sS'birds'
p1701
I1303
sS'blocked'
p1702
I3965
sS'dreading'
p1703
I3966
sS'pup'
p1704
I3967
sS'avid'
p1705
I3252
sS'apes'
p1706
I3968
sS'police'
p1707
I268
sS'monitor'
p1708
I2020
sS'josie'
p1709
I2725
sS'smoothie'
p1710
I2726
sS'interesting'
p1711
I1304
sS'jim'
p1712
I508
sS'troubles'
p1713
I2727
sS'hot'
p1714
I1106
sS'disliked'
p1715
I4385
sS'heated'
p1716
I3969
sS'window'
p1717
I411
sS'scarecrow'
p1718
I2728
sS'mail'
p1719
I769
sS'main'
p1720
I2021
sS'texas'
p1721
I3972
sS'happened'
p1722
I1469
sS'non'
p1723
I3973
sS'lonely'
p1724
I1305
sS'shayla'
p1725
I1107
sS'tucked'
p1726
I3974
sS'views'
p1727
I5108
sS'smarter'
p1728
I2729
sS'snowday'
p1729
I3975
sS'influencer'
p1730
I3307
sS'introduce'
p1731
I3978
sS'lunch'
p1732
I459
sS'tulip'
p1733
I3451
sS'momo'
p1734
I1603
sS'base'
p1735
I3981
sS'half'
p1736
I617
sS'not'
p1737
I68
sS'grows'
p1738
I3481
sS'now'
p1739
I124
sS'ketchup'
p1740
I1604
sS'matched'
p1741
I2023
sS'blissfully'
p1742
I5125
sS'cop'
p1743
I3641
sS'shouted'
p1744
I2024
sS'name'
p1745
I1307
sS'freya'
p1746
I3982
sS'opera'
p1747
I1842
sS'james'
p1748
I207
sS'drop'
p1749
I2311
sS'locked'
p1750
I3984
sS'testing'
p1751
I3626
sS'rock'
p1752
I2732
sS'colleagues'
p1753
I4962
sS'scolded'
p1754
I3986
sS'quarter'
p1755
I3987
sS'repaired'
p1756
I2733
sS'turtle'
p1757
I659
sS'fired'
p1758
I770
sS'challenged'
p1759
I2025
sS'experiment'
p1760
I3989
sS'ed'
p1761
I2026
sS'dishwasher'
p1762
I4460
sS'receipt'
p1763
I2734
sS'hurried'
p1764
I2027
sS'tutu'
p1765
I3991
sS'wrap'
p1766
I3992
sS'catching'
p1767
I3993
sS'unwrapped'
p1768
I3994
sS'ex'
p1769
I1110
sS'begun'
p1770
I3995
sS'year'
p1771
I203
sS'girl'
p1772
I165
sS'morning'
p1773
I239
sS'pills'
p1774
I3996
sS'amusement'
p1775
I1308
sS'plans'
p1776
I1111
sS'album'
p1777
I2028
sS'living'
p1778
I483
sS'accomplish'
p1779
I2735
sS'container'
p1780
I2029
sS'opened'
p1781
I473
sS'enjoyable'
p1782
I3997
sS'space'
p1783
I2030
sS'activities'
p1784
I2885
sS'looking'
p1785
I329
sS'replacing'
p1786
I2737
sS'contained'
p1787
I3345
sS'stuff'
p1788
I4001
sS'navigating'
p1789
I3349
sS'internet'
p1790
I1605
sS'clowns'
p1791
I4003
sS'stitches'
p1792
I4004
sS'sweet'
p1793
I1408
sS'correct'
p1794
I2738
sS'shows'
p1795
I2031
sS'canal'
p1796
I4005
sS'attended'
p1797
I1230
sS'monster'
p1798
I1309
sS'hairdresser'
p1799
I2033
sS'ceo'
p1800
I5203
sS'cars'
p1801
I1232
sS'million'
p1802
I1606
sS'material'
p1803
I4007
sS'cart'
p1804
I2034
sS'quite'
p1805
I1310
sS'worries'
p1806
I4008
sS'flyer'
p1807
I4009
sS'california'
p1808
I2740
sS'yuri'
p1809
I4010
sS'carl'
p1810
I2741
sS'grandma'
p1811
I1607
sS'marina'
p1812
I2742
sS'cara'
p1813
I2035
sS'marine'
p1814
I4011
sS'card'
p1815
I771
sS'care'
p1816
I392
sS'uploaded'
p1817
I4769
sS'advance'
p1818
I2743
sS'training'
p1819
I1311
sS'carnival'
p1820
I1295
sS'teachers'
p1821
I2744
sS'waiter'
p1822
I2745
sS'amanda'
p1823
I2746
sS'headphones'
p1824
I1608
sS'programming'
p1825
I2747
sS'honest'
p1826
I2748
sS'thing'
p1827
I708
sS'place'
p1828
I393
sS'massive'
p1829
I3879
sS'swing'
p1830
I2053
sS'promotion'
p1831
I4590
sS'view'
p1832
I2104
sS'associates'
p1833
I4016
sS'think'
p1834
I938
sS'waited'
p1835
I433
sS'first'
p1836
I70
sS'blind'
p1837
I772
sS'cheese'
p1838
I2037
sS'flying'
p1839
I2005
sS'saving'
p1840
I967
sS'striking'
p1841
I4017
sS'question'
p1842
I3087
sS'wave'
p1843
I4774
sS'waves'
p1844
I4020
sS'flipping'
p1845
I4021
sS'one'
p1846
I41
sS'clumsy'
p1847
I4022
sS'glen'
p1848
I5051
sS'long'
p1849
I156
sS'rink'
p1850
I2751
sS'spanish'
p1851
I2490
sS'vote'
p1852
I2492
sS'ring'
p1853
I968
sS'drove'
p1854
I406
sS'open'
p1855
I484
sS'tomorrow'
p1856
I1312
sS'marlene'
p1857
I1609
sS'rented'
p1858
I1313
sS'city'
p1859
I289
sS'little'
p1860
I157
sS'ian'
p1861
I869
sS'checked'
p1862
I709
sS'writes'
p1863
I4024
sS'efforts'
p1864
I3761
sS'caught'
p1865
I510
sS'slept'
p1866
I1112
sS'weekdays'
p1867
I4025
sS'establishment'
p1868
I4868
sS'plastic'
p1869
I2040
sS'anyone'
p1870
I969
sS'outing'
p1871
I4026
sS'shorts'
p1872
I4955
sS'2'
p1873
I710
sS'steep'
p1874
I4966
sS'terrifying'
p1875
I4027
sS'stuffed'
p1876
I1527
sS'typing'
p1877
I4028
sS'shoppers'
p1878
I4029
sS'desmond'
p1879
I1314
sS'white'
p1880
I2755
sS'marnie'
p1881
I2676
sS'friend'
p1882
I91
sS'gives'
p1883
I2756
sS'holden'
p1884
I1610
sS'nutrition'
p1885
I3554
sS'eyes'
p1886
I870
sS'hug'
p1887
I2041
sS'pomp'
p1888
I4031
sS'mostly'
p1889
I2757
sS'that'
p1890
I26
sS'shawn'
p1891
I2758
sS'season'
p1892
I773
sS'heritage'
p1893
I4706
sS'shortcomings'
p1894
I2927
sS'alan'
p1895
I4034
sS'cops'
p1896
I1533
sS'ridiculous'
p1897
I4035
sS'soren'
p1898
I1315
sS'dessert'
p1899
I1763
sS'gin'
p1900
I2043
sS'eliminated'
p1901
I4037
sS'flowers'
p1902
I2535
sS'than'
p1903
I460
sS'boyfriend'
p1904
I330
sS'11'
p1905
I1316
sS'10'
p1906
I1611
sS'television'
p1907
I1612
sS':'
p1908
I2045
sS'15'
p1909
I2761
sS'unfortunately'
p1910
I871
sS'17'
p1911
I4040
sS'16'
p1912
I2046
sS'19'
p1913
I4041
sS'rival'
p1914
I3621
sS'crowded'
p1915
I4043
sS'chicago'
p1916
I2999
sS'rehab'
p1917
I1613
sS'future'
p1918
I1317
sS'apples'
p1919
I872
sS'were'
p1920
I28
sS'missy'
p1921
I4951
sS'college'
p1922
I176
sS'sophie'
p1923
I4045
sS'server'
p1924
I4046
sS'janitor'
p1925
I2047
sS'russia'
p1926
I4047
sS'sophia'
p1927
I2048
sS'anyways'
p1928
I3449
sS'and'
p1929
I11
sS'illness'
p1930
I4049
sS'tasted'
p1931
I753
sS'sam'
p1932
I434
sS'remained'
p1933
I4050
sS'ann'
p1934
I660
sS'confessed'
p1935
I2763
sS'turned'
p1936
I412
sS'notebook'
p1937
I4876
sS'sad'
p1938
I214
sS'dash'
p1939
I3678
sS'medical'
p1940
I3584
sS'say'
p1941
I2049
sS'rained'
p1942
I2764
sS'rent'
p1943
I2765
sS'anger'
p1944
I4053
sS'allen'
p1945
I1318
sS'breakfast'
p1946
I1560
sS'sap'
p1947
I4054
sS'saw'
p1948
I99
sS'any'
p1949
I331
sS'marathon'
p1950
I1115
sS'sat'
p1951
I461
sS'speakers'
p1952
I4055
sS'pekingese'
p1953
I2051
sS'zoe'
p1954
I4056
sS'babysit'
p1955
I2236
sS'efficient'
p1956
I1614
sS'transcription'
p1957
I4057
sS'ideas'
p1958
I1567
sS'shocked'
p1959
I1116
sS'zoo'
p1960
I269
sS'note'
p1961
I774
sS'dining'
p1962
I2767
sS'18th'
p1963
I3990
sS'transcribed'
p1964
I4058
sS'take'
p1965
I89
sS'online'
p1966
I357
sS'bailey'
p1967
I1320
sS'wanting'
p1968
I1293
sS'swelled'
p1969
I4059
sS'registered'
p1970
I2671
sS'channel'
p1971
I2768
sS'butterfly'
p1972
I1616
sS'4th'
p1973
I4643
sS'begin'
p1974
I1321
sS'sure'
p1975
I435
sS'pain'
p1976
I711
sS'theatre'
p1977
I4061
sS'normal'
p1978
I1617
sS'track'
p1979
I1322
sS'price'
p1980
I1323
sS'knew'
p1981
I270
sS'dexter'
p1982
I4100
sS'paid'
p1983
I511
sS'falls'
p1984
I2052
sS'boiling'
p1985
I2769
sS'printed'
p1986
I2770
sS'sheets'
p1987
I4062
sS'connor'
p1988
I1324
sS'pair'
p1989
I247
sS'knee'
p1990
I970
sS'beth'
p1991
I413
sS'inserted'
p1992
I4357
sS'pages'
p1993
I2771
sS'michelle'
p1994
I4063
sS'lawn'
p1995
I971
sS'operate'
p1996
I4064
sS'registering'
p1997
I3936
sS'lenny'
p1998
I1325
sS'considered'
p1999
I2772
sS'egg'
p2000
I1378
sS'average'
p2001
I4066
sS'proud'
p2002
I166
sS'hungry'
p2003
I394
sS'gracefully'
p2004
I4067
sS'tooth'
p2005
I874
sS'crooked'
p2006
I4127
sS'jitters'
p2007
I2773
sS'properly'
p2008
I2774
sS'sunset'
p2009
I4068
sS'harvey'
p2010
I4105
sS'professional'
p2011
I775
sS'senior'
p2012
I2775
sS'salt'
p2013
I1620
sS'laws'
p2014
I1285
sS'shop'
p2015
I545
sS'walking'
p2016
I228
sS'shot'
p2017
I546
sS'cherry'
p2018
I4070
sS'show'
p2019
I188
sS'cheat'
p2020
I2056
sS'cheap'
p2021
I860
sS'discovered'
p2022
I2057
sS'troy'
p2023
I2058
sS'therapist'
p2024
I2059
sS'shoe'
p2025
I972
sS'pump'
p2026
I2060
sS'corner'
p2027
I973
sS'imagined'
p2028
I2777
sS'maine'
p2029
I1117
sS'fifth'
p2030
I2778
sS'ground'
p2031
I863
sS'slot'
p2032
I2780
sS'slow'
p2033
I1292
sS'witch'
p2034
I3882
sS'dice'
p2035
I2782
sS'daily'
p2036
I1490
sS'committee'
p2037
I2783
sS'stained'
p2038
I4073
sS'cheeseburger'
p2039
I4074
sS'enough'
p2040
I198
sS'either'
p2041
I2061
sS'honors'
p2042
I4798
sS'desired'
p2043
I4075
sS'tears'
p2044
I974
sS'going'
p2045
I53
sS'black'
p2046
I975
sS'hockey'
p2047
I2784
sS'stain'
p2048
I4076
sS'caroline'
p2049
I2785
sS'pumpkin'
p2050
I1326
sS'novels'
p2051
I4077
sS'get'
p2052
I43
sS'jazz'
p2053
I776
sS'begging'
p2054
I4079
sS'hailey'
p2055
I1622
sS'mission'
p2056
I4080
sS'reptile'
p2057
I5192
sS'nearly'
p2058
I1327
sS'bracelets'
p2059
I4082
sS'progress'
p2060
I5050
sS'compliments'
p2061
I4487
sS'suggest'
p2062
I3650
sS'den'
p2063
I3999
sS'celebrate'
p2064
I2786
sS'freaking'
p2065
I4085
sS'reveal'
p2066
I4087
sS'joked'
p2067
I4088
sS'artist'
p2068
I585
sS'covering'
p2069
I4089
sS'kidneys'
p2070
I4090
sS'irrational'
p2071
I4091
sS'borrow'
p2072
I2787
sS'fainted'
p2073
I2063
sS'worried'
p2074
I462
sS'miles'
p2075
I876
sS'roger'
p2076
I2788
sS'medications'
p2077
I5246
sS'forces'
p2078
I4092
sS'bekah'
p2079
I1624
sS'miley'
p2080
I1328
sS'die'
p2081
I3859
sS'tent'
p2082
I1988
sS'where'
p2083
I485
sS'husband'
p2084
I381
sS'ignored'
p2085
I2065
sS'pummeled'
p2086
I4095
sS'picnic'
p2087
I513
sS'concert'
p2088
I271
sS'siblings'
p2089
I3414
sS'burst'
p2090
I3147
sS'physically'
p2091
I4096
sS'station'
p2092
I661
sS'dived'
p2093
I4097
sS'seat'
p2094
I2066
sS'asleep'
p2095
I873
sS'sean'
p2096
I2068
sS'parking'
p2097
I1118
sS'surgery'
p2098
I1119
sS'sport'
p2099
I1330
sS'professed'
p2100
I4098
sS'janet'
p2101
I1127
sS'surfaces'
p2102
I4099
sS'william'
p2103
I3838
sS'satisfying'
p2104
I2791
sS'brave'
p2105
I4101
sS'pm'
p2106
I3440
sS'camping'
p2107
I2792
sS'generosity'
p2108
I4103
sS'ways'
p2109
I4104
sS'jumped'
p2110
I875
sS'fascinated'
p2111
I2069
sS'sites'
p2112
I4106
sS'forecast'
p2113
I4107
sS'stunned'
p2114
I3998
sS'3'
p2115
I1306
sS'withdrawing'
p2116
I4817
sS'permeated'
p2117
I4109
sS'refreshed'
p2118
I4110
sS'streaming'
p2119
I4111
sS'chews'
p2120
I2793
sS'reading'
p2121
I618
sS'across'
p2122
I586
sS'affordable'
p2123
I2794
sS'notice'
p2124
I1626
sS'jobs'
p2125
I1331
sS'mature'
p2126
I3092
sS'vertical'
p2127
I4113
sS'25'
p2128
I4415
sS'marvin'
p2129
I4114
sS'screen'
p2130
I1332
sS'vatican'
p2131
I1981
sS'timmy'
p2132
I436
sS'supermarket'
p2133
I1627
sS'inseparable'
p2134
I2797
sS'guitar'
p2135
I272
sS'gratefully'
p2136
I4117
sS'residents'
p2137
I4633
sS'jo'
p2138
I2864
sS'spare'
p2139
I877
sS'pluck'
p2140
I4119
sS'prematurely'
p2141
I3795
sS'coma'
p2142
I4121
sS'pens'
p2143
I4122
sS'tub'
p2144
I976
sS'killing'
p2145
I4123
sS'come'
p2146
I619
sS'tug'
p2147
I4124
sS'reaction'
p2148
I2070
sS'brody'
p2149
I3983
sS'rugby'
p2150
I1629
sS'talented'
p2151
I2071
sS'loris'
p2152
I4126
sS'mona'
p2153
I2072
sS'many'
p2154
I180
sS'sleeps'
p2155
I3602
sS'quiet'
p2156
I777
sS'millionaire'
p2157
I2073
sS'flipped'
p2158
I2074
sS'somewhere'
p2159
I4128
sS's'
p2160
I81
sS'loudly'
p2161
I1333
sS'dated'
p2162
I2798
sS'reluctantly'
p2163
I4129
sS'multi'
p2164
I4130
sS'delete'
p2165
I3797
sS'groundhog'
p2166
I2075
sS'backpack'
p2167
I2478
sS'comes'
p2168
I4131
sS'nearby'
p2169
I1630
sS'riddle'
p2170
I1120
sS'drawer'
p2171
I4848
sS'baldwin'
p2172
I4132
sS'afterwards'
p2173
I712
sS'cancer'
p2174
I878
sS'mails'
p2175
I4133
sS'color'
p2176
I713
sS'pot'
p2177
I1334
sS'jeans'
p2178
I1631
sS'pop'
p2179
I1121
sS'menacing'
p2180
I4136
sS'pole'
p2181
I879
sS'medication'
p2182
I2800
sS'jammed'
p2183
I4137
sS'stretched'
p2184
I4138
sS'learning'
p2185
I620
sS'approval'
p2186
I4139
sS'cancel'
p2187
I978
sS'supervisor'
p2188
I3714
sS'poll'
p2189
I2076
sS'consider'
p2190
I4141
sS'boat'
p2191
I414
sS'math'
p2192
I1632
sS'turkey'
p2193
I1122
sS'destroyed'
p2194
I2077
sS'unusual'
p2195
I2801
sS'teddy'
p2196
I1123
sS'barry'
p2197
I177
sS'crysta'
p2198
I4995
sS'informed'
p2199
I2078
sS'vacation'
p2200
I222
sS'maternity'
p2201
I4142
sS'mark'
p2202
I332
sS'breath'
p2203
I1350
sS'punished'
p2204
I2802
sS'legit'
p2205
I2803
sS'toss'
p2206
I3409
sS'rancher'
p2207
I1335
sS'helicopter'
p2208
I4145
sS'featuring'
p2209
I4146
sS'dessie'
p2210
I2804
sS'hardly'
p2211
I4147
sS'mary'
p2212
I333
sS'500'
p2213
I4148
sS'wants'
p2214
I395
sS'educated'
p2215
I2805
sS'shopping'
p2216
I382
sS'searches'
p2217
I3314
sS'income'
p2218
I3103
sS'robbed'
p2219
I2806
sS'offered'
p2220
I993
sS'formed'
p2221
I2807
sS'fare'
p2222
I4907
sS'andrew'
p2223
I2080
sS'tiger'
p2224
I1336
sS'photos'
p2225
I1337
sS'spills'
p2226
I1634
sS'wake'
p2227
I1635
sS'peanuts'
p2228
I4423
sS'laying'
p2229
I4149
sS'careful'
p2230
I880
sS'hidden'
p2231
I2808
sS'those'
p2232
I2809
sS'pilot'
p2233
I979
sS'sound'
p2234
I1065
sS'myself'
p2235
I1636
sS'stacked'
p2236
I4150
sS'disconnected'
p2237
I4151
sS'these'
p2238
I4152
sS'might'
p2239
I2504
sS'chinatown'
p2240
I2082
sS'cash'
p2241
I1670
sS"n't"
p2242
I32
sS'cast'
p2243
I778
sS'hesitant'
p2244
I5169
sS'skimming'
p2245
I3096
sS'achieve'
p2246
I2455
sS'familiarizing'
p2247
I4157
sS'newspaper'
p2248
I779
sS'situation'
p2249
I2083
sS'mechanical'
p2250
I4295
sS'snoopy'
p2251
I4896
sS'taking'
p2252
I401
sS'backache'
p2253
I3854
sS'premiere'
p2254
I5116
sS'eventually'
p2255
I475
sS'determination'
p2256
I4159
sS'purse'
p2257
I4239
sS'coffee'
p2258
I297
sS'sleeping'
p2259
I980
sS'middle'
p2260
I359
sS'sudden'
p2261
I882
sS'punched'
p2262
I1639
sS'sprouts'
p2263
I4112
sS'toothache'
p2264
I2810
sS'restroom'
p2265
I2811
sS'technology'
p2266
I4160
sS'everyday'
p2267
I1376
sS'worry'
p2268
I1338
sS'refilled'
p2269
I4807
sS'bags'
p2270
I2813
sS'different'
p2271
I415
sS'annoying'
p2272
I4161
sS'develop'
p2273
I2814
sS'harsh'
p2274
I2815
sS'doctor'
p2275
I105
sS'pay'
p2276
I662
sS'bowl'
p2277
I999
sS'tour'
p2278
I2086
sS'same'
p2279
I547
sS'trip'
p2280
I107
sS'skittles'
p2281
I2087
sS'speech'
p2282
I1269
sS'lovers'
p2283
I4164
sS'coworkers'
p2284
I780
sS'buys'
p2285
I587
sS'stepped'
p2286
I1339
sS'events'
p2287
I2816
sS'pan'
p2288
I2088
sS'week'
p2289
I158
sS'noble'
p2290
I2817
sS'finish'
p2291
I595
sS'clue'
p2292
I4743
sS'closest'
p2293
I2818
sS'nest'
p2294
I2089
sS'arden'
p2295
I1124
sS'driver'
p2296
I663
sS'weed'
p2297
I2090
sS'director'
p2298
I1641
sS'running'
p2299
I334
sS'fruit'
p2300
I1340
sS'statue'
p2301
I4166
sS'climbing'
p2302
I1125
sS'cupcake'
p2303
I4429
sS'totally'
p2304
I2091
sS'tradition'
p2305
I2092
sS'vowed'
p2306
I2093
sS'hummingbird'
p2307
I4167
sS'complained'
p2308
I2819
sS'costa'
p2309
I2820
sS'theater'
p2310
I883
sS'charges'
p2311
I2821
sS'safely'
p2312
I3258
sS'no'
p2313
I122
sS'lady'
p2314
I2239
sS'recital'
p2315
I416
sS'without'
p2316
I1126
sS'solve'
p2317
I2822
sS'relief'
p2318
I4169
sS'bottle'
p2319
I982
sS'tirelessly'
p2320
I2437
sS'genie'
p2321
I1642
sS'model'
p2322
I781
sS'allowance'
p2323
I4171
sS'amazed'
p2324
I714
sS'charged'
p2325
I1398
sS'taxi'
p2326
I2094
sS'summer'
p2327
I360
sS'sprayed'
p2328
I1643
sS'gaining'
p2329
I2871
sS'rooting'
p2330
I4400
sS'noah'
p2331
I1644
sS'being'
p2332
I311
sS'money'
p2333
I136
sS'dancers'
p2334
I2095
sS'sights'
p2335
I4174
sS'rest'
p2336
I983
sS'slimy'
p2337
I4175
sS'growled'
p2338
I4176
sS'kill'
p2339
I2096
sS'actor'
p2340
I1645
sS'harrison'
p2341
I4177
sS'touch'
p2342
I2097
sS'polish'
p2343
I3015
sS'flavor'
p2344
I4179
sS'speed'
p2345
I2823
sS'halfway'
p2346
I4181
sS'announcement'
p2347
I4183
sS'rake'
p2348
I3976
sS'death'
p2349
I1341
sS'asthma'
p2350
I4184
sS'grounded'
p2351
I2098
sS'nick'
p2352
I664
sS'mcdonald'
p2353
I1406
sS'rose'
p2354
I2099
sS'daydreaming'
p2355
I4185
sS'seems'
p2356
I4186
sS'parlor'
p2357
I2824
sS'desktop'
p2358
I1128
sS'blog'
p2359
I4187
sS'instrument'
p2360
I2825
sS'gardening'
p2361
I3066
sS'setting'
p2362
I2826
sS'pile'
p2363
I1129
sS'4'
p2364
I1342
sS'samples'
p2365
I2100
sS'halftime'
p2366
I5012
sS'scrapbook'
p2367
I2101
sS'struck'
p2368
I2827
sS'instructions'
p2369
I4189
sS'pill'
p2370
I4190
sS'momentum'
p2371
I2828
sS'ross'
p2372
I984
sS'swim'
p2373
I313
sS'shadows'
p2374
I4191
sS'starving'
p2375
I2830
sS'jake'
p2376
I621
sS'crusty'
p2377
I2831
sS'around'
p2378
I194
sS'complemented'
p2379
I4192
sS'code'
p2380
I4193
sS'rules'
p2381
I1170
sS'stung'
p2382
I4194
sS'mop'
p2383
I2832
sS'mow'
p2384
I4195
sS'fridge'
p2385
I884
sS'sump'
p2386
I4162
sS'dark'
p2387
I622
sS'birdhouse'
p2388
I5202
sS'orthopedic'
p2389
I4196
sS'traffic'
p2390
I885
sS'mom'
p2391
I143
sS'vacuum'
p2392
I1648
sS'world'
p2393
I515
sS'accepted'
p2394
I886
sS'disappointed'
p2395
I548
sS'scientist'
p2396
I5036
sS'forecaster'
p2397
I2834
sS'furniture'
p2398
I4198
sS'diaper'
p2399
I2776
sS'sails'
p2400
I4199
sS'towel'
p2401
I2242
sS'pounds'
p2402
I2102
sS'oozed'
p2403
I4200
sS'twisted'
p2404
I4201
sS'buddies'
p2405
I4202
sS'towed'
p2406
I4203
sS'twin'
p2407
I4204
sS'serves'
p2408
I4205
sS'lightning'
p2409
I1343
sS'facing'
p2410
I4206
sS'audience'
p2411
I2103
sS'rachael'
p2412
I2836
sS't'
p2413
I985
sS'occasions'
p2414
I3450
sS'beverly'
p2415
I4207
sS'served'
p2416
I1649
sS'sharp'
p2417
I4208
sS'twelve'
p2418
I2838
sS'scalpel'
p2419
I4209
sS'joking'
p2420
I2839
sS'jetlagged'
p2421
I4173
sS'30'
p2422
I4210
sS'paris'
p2423
I1488
sS'competition'
p2424
I588
sS'lucy'
p2425
I2207
sS'youtube'
p2426
I4212
sS'depressed'
p2427
I4213
sS'stormed'
p2428
I1783
sS'kings'
p2429
I2842
sS'images'
p2430
I2106
sS'rehearsing'
p2431
I4214
sS'pickles'
p2432
I4215
sS'joan'
p2433
I4216
sS'thinks'
p2434
I1344
sS'energetic'
p2435
I4733
sS'faster'
p2436
I4071
sS'slice'
p2437
I986
sS'caribbean'
p2438
I4219
sS'mood'
p2439
I987
sS'unc'
p2440
I4182
sS'cavity'
p2441
I2107
sS'memories'
p2442
I2843
sS'ability'
p2443
I2370
sS'fondue'
p2444
I2680
sS'recorded'
p2445
I4222
sS'frantically'
p2446
I2844
sS'stops'
p2447
I3110
sS'moon'
p2448
I1345
sS'handicap'
p2449
I4224
sS'ellie'
p2450
I549
sS'babysitter'
p2451
I1431
sS'snapped'
p2452
I4831
sS'custody'
p2453
I1651
sS'recorder'
p2454
I4226
sS'doggy'
p2455
I2845
sS'911'
p2456
I4227
sS'quitting'
p2457
I4228
sS'knife'
p2458
I2846
sS'calmed'
p2459
I3455
sS'caring'
p2460
I4230
sS'felt'
p2461
I170
sS'meant'
p2462
I4845
sS'business'
p2463
I589
sS'vivian'
p2464
I2108
sS'internship'
p2465
I1346
sS'manufactured'
p2466
I2847
sS'nails'
p2467
I715
sS'seedlings'
p2468
I3008
sS'communicate'
p2469
I4233
sS'souvenir'
p2470
I5054
sS'hunt'
p2471
I4947
sS'broken'
p2472
I361
sS'encouraging'
p2473
I4235
sS'visits'
p2474
I2109
sS'drums'
p2475
I4236
sS'terrified'
p2476
I516
sS'sixty'
p2477
I3846
sS'leftover'
p2478
I4238
sS'francis'
p2479
I1347
sS'throw'
p2480
I1348
sS'released'
p2481
I2760
sS'brighton'
p2482
I1652
sS'lock'
p2483
I4856
sS'on'
p2484
I23
sS'stone'
p2485
I4932
sS'ok'
p2486
I2848
sS'ace'
p2487
I4242
sS'package'
p2488
I1130
sS'of'
p2489
I18
sS'marc'
p2490
I1653
sS'favorite'
p2491
I253
sS'meal'
p2492
I716
sS'chop'
p2493
I4243
sS'mutually'
p2494
I4244
sS'fell'
p2495
I261
sS'wolf'
p2496
I2110
sS'stand'
p2497
I1131
sS'neighbor'
p2498
I988
sS'west'
p2499
I3666
sS'mixed'
p2500
I2111
sS'intent'
p2501
I4246
sS'mean'
p2502
I2112
sS'or'
p2503
I1197
sS'road'
p2504
I240
sS'amber'
p2505
I1779
sS'heater'
p2506
I4248
sS'uhaul'
p2507
I3179
sS'cambridge'
p2508
I4250
sS'protests'
p2509
I4251
sS'curling'
p2510
I4252
sS'burning'
p2511
I3180
sS'instruments'
p2512
I2851
sS'miranda'
p2513
I3821
sS'signing'
p2514
I3486
sS'flavors'
p2515
I4256
sS'renovate'
p2516
I4257
sS'rolling'
p2517
I4258
sS'accounts'
p2518
I2853
sS'jasper'
p2519
I1349
sS'puddle'
p2520
I2854
sS'gary'
p2521
I887
sS'elementary'
p2522
I4259
sS'feeders'
p2523
I2856
sS'snowmen'
p2524
I4260
sS'your'
p2525
I3694
sS'upstairs'
p2526
I1654
sS'tropical'
p2527
I4135
sS'pizzas'
p2528
I2857
sS'burglar'
p2529
I1655
sS'accelerator'
p2530
I3351
sS'her'
p2531
I14
sS'area'
p2532
I1132
sS'assumed'
p2533
I2858
sS'there'
p2534
I126
sS'shelly'
p2535
I1351
sS'meals'
p2536
I4262
sS'strict'
p2537
I1134
sS'poured'
p2538
I1397
sS'lions'
p2539
I1133
sS'low'
p2540
I1352
sS'lot'
p2541
I103
sS'colder'
p2542
I3809
sS'attends'
p2543
I3266
sS'slopes'
p2544
I4264
sS'saxophonist'
p2545
I2114
sS'energy'
p2546
I1277
sS'foam'
p2547
I4451
sS'allergic'
p2548
I1354
sS'pottery'
p2549
I4746
sS'exasperated'
p2550
I2799
sS'complete'
p2551
I1355
sS'hoda'
p2552
I2859
sS'kittens'
p2553
I1951
sS'peggy'
p2554
I4266
sS'judging'
p2555
I4144
sS'pitcher'
p2556
I1657
sS'delayed'
p2557
I2861
sS'strikes'
p2558
I4268
sS'spider'
p2559
I3490
sS'bookstore'
p2560
I4270
sS'omelet'
p2561
I4271
sS'happier'
p2562
I3104
sS'maker'
p2563
I4822
sS'trying'
p2564
I241
sS'with'
p2565
I27
sS'shannon'
p2566
I2418
sS'buying'
p2567
I989
sS'cheated'
p2568
I1985
sS'bryan'
p2569
I4273
sS'pull'
p2570
I888
sS'rush'
p2571
I717
sS'fraud'
p2572
I2115
sS'arranged'
p2573
I4274
sS'romantic'
p2574
I2863
sS'greeted'
p2575
I2116
sS'bucket'
p2576
I2117
sS'chomped'
p2577
I4275
sS'nearest'
p2578
I2291
sS'strawberry'
p2579
I1658
sS'exhaustion'
p2580
I4276
sS'suitcase'
p2581
I4277
sS'site'
p2582
I5102
sS'grass'
p2583
I1135
sS'agree'
p2584
I2865
sS'glenda'
p2585
I2866
sS'strongly'
p2586
I4278
sS'gone'
p2587
I396
sS'vehicles'
p2588
I4279
sS'ad'
p2589
I4280
sS'johnny'
p2590
I606
sS'cinema'
p2591
I2867
sS'taste'
p2592
I990
sS'certain'
p2593
I2119
sS'stealing'
p2594
I3494
sS'am'
p2595
I495
sS'cringed'
p2596
I4281
sS'deep'
p2597
I1136
sS'an'
p2598
I86
sS'imagination'
p2599
I1819
sS'as'
p2600
I83
sS'hypertension'
p2601
I4282
sS'at'
p2602
I30
sS'planets'
p2603
I2868
sS'walks'
p2604
I1661
sS'girlfriend'
p2605
I264
sS'watched'
p2606
I925
sS'deed'
p2607
I2869
sS'moves'
p2608
I2120
sS'nerd'
p2609
I851
sS'film'
p2610
I1357
sS'fill'
p2611
I1034
sS'again'
p2612
I178
sS'stumbled'
p2613
I4285
sS'cabinets'
p2614
I4286
sS'heather'
p2615
I991
sS'rubbed'
p2616
I4287
sS'retiring'
p2617
I4288
sS'drivers'
p2618
I4289
sS'graduate'
p2619
I2482
sS'rubber'
p2620
I2870
sS'field'
p2621
I1137
sS'badly'
p2622
I4290
sS'vietnam'
p2623
I2900
sS'5'
p2624
I890
sS'gambling'
p2625
I992
sS'you'
p2626
I463
sS'puppy'
p2627
I312
sS'thousand'
p2628
I1633
sS'poor'
p2629
I2314
sS'championship'
p2630
I2121
sS'classmate'
p2631
I3827
sS'shelter'
p2632
I1358
sS'time'
p2633
I48
sS'overreact'
p2634
I4293
sS'gifts'
p2635
I2405
sS'walker'
p2636
I2833
sS'important'
p2637
I891
sS'poodle'
p2638
I994
sS'terry'
p2639
I1478
sS'chris'
p2640
I718
sS'decorated'
p2641
I4296
sS'redecorating'
p2642
I2873
sS'13'
p2643
I4291
sS'pool'
p2644
I623
sS'alcohol'
p2645
I4298
sS'building'
p2646
I783
sS'booked'
p2647
I1360
sS'natalie'
p2648
I4299
sS'studio'
p2649
I4300
sS'applause'
p2650
I4083
sS'calls'
p2651
I1663
sS'wife'
p2652
I125
sS'tanner'
p2653
I2874
sS'groom'
p2654
I2875
sS'mask'
p2655
I1361
sS'controller'
p2656
I4991
sS'barcelona'
p2657
I4303
sS'sounded'
p2658
I2122
sS'moonlight'
p2659
I2876
sS'gross'
p2660
I4304
sS'dramatic'
p2661
I4306
sS'mass'
p2662
I4307
sS'adam'
p2663
I2965
sS'missouri'
p2664
I4309
sS'starting'
p2665
I892
sS'original'
p2666
I4310
sS'all'
p2667
I35
sS'homes'
p2668
I2379
sS'lapped'
p2669
I4311
sS'forget'
p2670
I1665
sS'chinese'
p2671
I2837
sS'caused'
p2672
I1362
sS'lack'
p2673
I2428
sS'dollar'
p2674
I995
sS'none'
p2675
I2878
sS'month'
p2676
I486
sS'sunk'
p2677
I3360
sS'commute'
p2678
I3022
sS'parmesan'
p2679
I1859
sS'dish'
p2680
I1229
sS'follow'
p2681
I1231
sS'research'
p2682
I2956
sS'religious'
p2683
I2879
sS'children'
p2684
I551
sS'emily'
p2685
I2273
sS'jessie'
p2686
I1139
sS'appliances'
p2687
I4356
sS'apartment'
p2688
I464
sS'hunting'
p2689
I1140
sS'tv'
p2690
I383
sS'leaking'
p2691
I5146
sS'pledged'
p2692
I4315
sS'regulars'
p2693
I2880
sS'acting'
p2694
I5157
sS'former'
p2695
I2881
sS'to'
p2696
I6
sS'aaron'
p2697
I784
sS'program'
p2698
I996
sS'chewing'
p2699
I2882
sS'gig'
p2700
I3777
sS'safety'
p2701
I2039
sS'enjoying'
p2702
I1668
sS'presentation'
p2703
I4317
sS'hill'
p2704
I4318
sS'case'
p2705
I881
sS'woman'
p2706
I437
sS'appointment'
p2707
I1141
sS'returned'
p2708
I719
sS'sitting'
p2709
I666
sS'very'
p2710
I24
sS'detention'
p2711
I2886
sS'fat'
p2712
I1669
sS'vera'
p2713
I4320
sS'gradually'
p2714
I4674
sS'scout'
p2715
I2887
sS'fan'
p2716
I893
sS'decide'
p2717
I1243
sS'got'
p2718
I47
sS'awful'
p2719
I2126
sS'labor'
p2720
I3182
sS'ticket'
p2721
I894
sS'difference'
p2722
I4321
sS'ramen'
p2723
I4322
sS'condition'
p2724
I2889
sS'amtrak'
p2725
I4065
sS'elated'
p2726
I2127
sS'heaven'
p2727
I4324
sS'cable'
p2728
I1364
sS'jenna'
p2729
I2891
sS'list'
p2730
I1365
sS'joined'
p2731
I2128
sS'punish'
p2732
I4326
sS'grandfather'
p2733
I2892
sS'large'
p2734
I517
sS'sang'
p2735
I2129
sS'sand'
p2736
I4327
sS'skate'
p2737
I2893
sS'steakhouse'
p2738
I1751
sS'harry'
p2739
I1143
sS'small'
p2740
I438
sS'lisa'
p2741
I1144
sS'throbbing'
p2742
I4328
sS'youngest'
p2743
I4814
sS'runway'
p2744
I3274
sS'ninetieth'
p2745
I2509
sS'maggie'
p2746
I4330
sS'cookies'
p2747
I552
sS'vicki'
p2748
I5089
sS'neighborhood'
p2749
I417
sS'ten'
p2750
I1145
sS'ruling'
p2751
I5225
sS'tea'
p2752
I2130
sS'streets'
p2753
I2896
sS'ted'
p2754
I487
sS'robyn'
p2755
I4331
sS'unable'
p2756
I4332
sS'past'
p2757
I1146
sS'burger'
p2758
I1671
sS'zero'
p2759
I4333
sS'settled'
p2760
I2447
sS'lawyer'
p2761
I591
sS'pass'
p2762
I1147
sS'further'
p2763
I2522
sS'casual'
p2764
I2898
sS'ribbon'
p2765
I4335
sS'bass'
p2766
I3876
sS'trick'
p2767
I2067
sS'what'
p2768
I94
sS'stood'
p2769
I896
sS'darkness'
p2770
I1672
sS'richard'
p2771
I2132
sS'clock'
p2772
I2133
sS'deeply'
p2773
I4337
sS'section'
p2774
I4338
sS'dirt'
p2775
I2959
sS'anniversary'
p2776
I948
sS'trinket'
p2777
I2899
sS'crush'
p2778
I1536
sS'suv'
p2779
I4340
sS'abs'
p2780
I4341
sS'apologized'
p2781
I2134
sS'sur'
p2782
I4342
sS'companion'
p2783
I4457
sS'infamous'
p2784
I4634
sS'learned'
p2785
I535
sS'racing'
p2786
I2135
sS'movement'
p2787
I2136
sS'revealing'
p2788
I4343
sS'full'
p2789
I1213
sS'christian'
p2790
I1675
sS'crafts'
p2791
I4405
sS'bowtie'
p2792
I1676
sS'unprofessional'
p2793
I4344
sS'loose'
p2794
I1148
sS'ballet'
p2795
I1149
sS'answers'
p2796
I4345
sS'jonah'
p2797
I4234
sS'hours'
p2798
I181
sS'cancelled'
p2799
I1366
sS'tracks'
p2800
I4347
sS'ramon'
p2801
I4348
sS'profiled'
p2802
I4349
sS'directions'
p2803
I2903
sS'yummy'
p2804
I3988
sS'strong'
p2805
I1677
sS'tigey'
p2806
I2905
sS'thrift'
p2807
I4351
sS'arena'
p2808
I4352
sS'search'
p2809
I1367
sS'colored'
p2810
I2906
sS'vegetarian'
p2811
I2137
sS'jackie'
p2812
I1368
sS'experience'
p2813
I2138
sS'prior'
p2814
I2907
sS'airport'
p2815
I1002
sS'tiffany'
p2816
I1465
sS'lasagna'
p2817
I785
sS'hamster'
p2818
I1680
sS'pick'
p2819
I592
sS'cathy'
p2820
I238
sS'assuming'
p2821
I5174
sS'options'
p2822
I2908
sS'fanatic'
p2823
I2860
sS'trainer'
p2824
I2342
sS'sticking'
p2825
I2909
sS'followed'
p2826
I1370
sS'family'
p2827
I90
sS'bathe'
p2828
I4354
sS'suddenly'
p2829
I397
sS'transit'
p2830
I1681
sS'mistreated'
p2831
I4418
sS'pope'
p2832
I4764
sS'put'
p2833
I100
sS'footwear'
p2834
I4355
sS'trained'
p2835
I2084
sS'toys'
p2836
I1371
sS'pulls'
p2837
I997
sS'actress'
p2838
I4358
sS'suits'
p2839
I4765
sS'attendant'
p2840
I2962
sS'barked'
p2841
I4359
sS'conventional'
p2842
I4360
sS'attendance'
p2843
I4361
sS'eye'
p2844
I1372
sS'takes'
p2845
I624
sS'donuts'
p2846
I1683
sS'wiped'
p2847
I4362
sS'canoe'
p2848
I4363
sS'texting'
p2849
I1684
sS'two'
p2850
I148
sS'slumber'
p2851
I4153
sS'pearl'
p2852
I4365
sS'splash'
p2853
I4366
sS'wavering'
p2854
I4367
sS'warmed'
p2855
I5158
sS'6'
p2856
I2910
sS'taken'
p2857
I1151
sS'injury'
p2858
I1978
sS'arguing'
p2859
I4941
sS'minor'
p2860
I2911
sS'more'
p2861
I153
sS'teen'
p2862
I4369
sS'flat'
p2863
I1373
sS'diamond'
p2864
I4370
sS'door'
p2865
I254
sS'knows'
p2866
I1374
sS'bumped'
p2867
I4371
sS'crested'
p2868
I4372
sS'company'
p2869
I667
sS'pairs'
p2870
I2997
sS'yolanda'
p2871
I4373
sS'tested'
p2872
I4374
sS'flag'
p2873
I898
sS'bragged'
p2874
I4461
sS'controlling'
p2875
I4375
sS'stick'
p2876
I1685
sS'broke'
p2877
I439
sS'rudeness'
p2878
I2913
sS'known'
p2879
I2914
sS'flan'
p2880
I2587
sS'glad'
p2881
I195
sS'town'
p2882
I265
sS'grill'
p2883
I2141
sS'keeping'
p2884
I2142
sS'hour'
p2885
I363
sS'science'
p2886
I899
sS'entertainment'
p2887
I4915
sS'mall'
p2888
I1152
sS'examined'
p2889
I5103
sS'nine'
p2890
I1686
sS'morgan'
p2891
I786
sS'learn'
p2892
I216
sS'knocked'
p2893
I1687
sS'male'
p2894
I4377
sS'marble'
p2895
I2144
sS'complain'
p2896
I2916
sS'history'
p2897
I2917
sS'beautiful'
p2898
I242
sS'stubborn'
p2899
I4378
sS'compare'
p2900
I3897
sS'hamburger'
p2901
I2145
sS'heat'
p2902
I2918
sS'division'
p2903
I2668
sS'aphids'
p2904
I1689
sS'rustled'
p2905
I2919
sS'neglected'
p2906
I4380
sS'ludo'
p2907
I2146
sS'terrible'
p2908
I1159
sS'states'
p2909
I4381
sS'pushed'
p2910
I1690
sS'tuesday'
p2911
I4382
sS'salty'
p2912
I1691
sS'numbers'
p2913
I1888
sS'purchased'
p2914
I2148
sS'lopped'
p2915
I4154
sS'pond'
p2916
I998
sS'scar'
p2917
I2681
sS'dress'
p2918
I243
sS'action'
p2919
I4353
sS'bonded'
p2920
I1375
sS'/'
p2921
I4386
sS'!'
p2922
I45
sS'huge'
p2923
I249
sS'triathlon'
p2924
I1601
sS'answer'
p2925
I1506
sS'court'
p2926
I900
sS'goal'
p2927
I553
sS'drained'
p2928
I4388
sS'khakis'
p2929
I2149
sS'rather'
p2930
I2920
sS'breaking'
p2931
I2150
sS'documentaries'
p2932
I3757
sS'stayed'
p2933
I507
sS'thrills'
p2934
I2812
sS'stitch'
p2935
I4390
sS'glowing'
p2936
I4391
sS'musicians'
p2937
I4392
sS'speeding'
p2938
I1693
sS'hottest'
p2939
I4272
sS'creature'
p2940
I2152
sS'plant'
p2941
I2923
sS'sandwich'
p2942
I625
sS'okay'
p2943
I720
sS'tried'
p2944
I223
sS'rude'
p2945
I1694
sS'dinosaur'
p2946
I3333
sS'advice'
p2947
I2884
sS'scouts'
p2948
I3682
sS'sneak'
p2949
I4395
sS'replace'
p2950
I2924
sS'tries'
p2951
I2925
sS'plane'
p2952
I1153
sS'shooting'
p2953
I3322
sS'adventure'
p2954
I1201
sS'coming'
p2955
I418
sS'backyard'
p2956
I593
sS'choice'
p2957
I1377
sS'bloom'
p2958
I4396
sS'response'
p2959
I2153
sS'crushed'
p2960
I5147
sS'a'
p2961
I7
sS'abe'
p2962
I2926
sS'dorms'
p2963
I2759
sS'short'
p2964
I721
sS'teagan'
p2965
I3570
sS'collision'
p2966
I4398
sS'orchard'
p2967
I4399
sS'susan'
p2968
I419
sS'onto'
p2969
I845
sS'quoted'
p2970
I2928
sS'paw'
p2971
I3109
sS'rowdy'
p2972
I4401
sS'bugs'
p2973
I1155
sS'discussing'
p2974
I4402
sS'shore'
p2975
I2929
sS'block'
p2976
I4694
sS'scaring'
p2977
I4404
sS'media'
p2978
I4168
sS'maneuver'
p2979
I4406
sS'dream'
p2980
I346
sS'playing'
p2981
I129
sS'feeds'
p2982
I4407
sS'mexican'
p2983
I4408
sS'help'
p2984
I150
sS'september'
p2985
I2930
sS'nighter'
p2986
I2085
sS'stays'
p2987
I2931
sS'soon'
p2988
I365
sS'installed'
p2989
I4409
sS'quizzical'
p2990
I4410
sS'held'
p2991
I2155
sS'attitude'
p2992
I3868
sS'paper'
p2993
I1000
sS'through'
p2994
I217
sS'reconnect'
p2995
I2156
sS'signs'
p2996
I2157
sS'littler'
p2997
I4411
sS'comfortably'
p2998
I4973
sS'its'
p2999
I1379
sS'unhealthy'
p3000
I4413
sS'24'
p3001
I4414
sS'messed'
p3002
I2796
sS'blast'
p3003
I2933
sS'20'
p3004
I1696
sS'21'
p3005
I4417
sS'22'
p3006
I4211
sS'assaulting'
p3007
I2935
sS'beyonce'
p3008
I1697
sS'actually'
p3009
I4419
sS'late'
p3010
I266
sS'resort'
p3011
I4420
sS'absence'
p3012
I2936
sS'parts'
p3013
I2937
sS'bypass'
p3014
I2158
sS'symptoms'
p3015
I4421
sS'stephen'
p3016
I4422
sS'pad'
p3017
I1640
sS'travelling'
p3018
I4424
sS'soccer'
p3019
I594
sS'sauce'
p3020
I1698
sS'ally'
p3021
I1699
sS'lacey'
p3022
I4425
sS'fool'
p3023
I2938
sS'wouldn'
p3024
I2939
sS'hurting'
p3025
I2940
sS'good'
p3026
I97
sS'return'
p3027
I2941
sS'otto'
p3028
I4426
sS'severely'
p3029
I4428
sS'food'
p3030
I130
sS'propose'
p3031
I1380
sS'floating'
p3032
I2654
sS'disregarded'
p3033
I2179
sS'underground'
p3034
I4430
sS'snowball'
p3035
I4431
sS'awoke'
p3036
I4432
sS'sprang'
p3037
I4433
sS'hippos'
p3038
I2942
sS'foot'
p3039
I1156
sS'polygraph'
p3040
I2353
sS'adventurous'
p3041
I2852
sS'sucked'
p3042
I2159
sS'mystery'
p3043
I2945
sS'marcus'
p3044
I1381
sS'robbie'
p3045
I2160
sS'pregnant'
p3046
I1700
sS'sundays'
p3047
I4435
sS'always'
p3048
I78
sS'kayaking'
p3049
I4436
sS'attacks'
p3050
I3758
sS'lotto'
p3051
I4221
sS'swimsuit'
p3052
I2947
sS'bless'
p3053
I4438
sS'courses'
p3054
I2948
sS'someone'
p3055
I787
sS'habits'
p3056
I4439
sS'stopped'
p3057
I420
sS'turns'
p3058
I3680
sS'found'
p3059
I52
sS'biscuits'
p3060
I2162
sS'button'
p3061
I2949
sS'trailer'
p3062
I2163
sS'heavy'
p3063
I2950
sS'breakdown'
p3064
I2951
sS'harm'
p3065
I2952
sS'everyone'
p3066
I488
sS'begged'
p3067
I1701
sS'delicious'
p3068
I1415
sS'weight'
p3069
I627
sS'house'
p3070
I108
sS'fish'
p3071
I440
sS'hard'
p3072
I151
sS'haley'
p3073
I1703
sS'idea'
p3074
I384
sS'accidentally'
p3075
I763
sS'investigated'
p3076
I4165
sS'flickered'
p3077
I4784
sS'fist'
p3078
I4440
sS'scratching'
p3079
I2164
sS'carry'
p3080
I4023
sS'portland'
p3081
I4442
sS'event'
p3082
I590
sS'really'
p3083
I237
sS'anxious'
p3084
I2262
sS'lola'
p3085
I4443
sS'flower'
p3086
I1382
sS'missed'
p3087
I1157
sS'wondered'
p3088
I4445
sS'scoops'
p3089
I1383
sS'robert'
p3090
I1001
sS'since'
p3091
I385
sS'jolly'
p3092
I1666
sS'misses'
p3093
I4316
sS'admired'
p3094
I4446
sS'health'
p3095
I1384
sS'hood'
p3096
I1909
sS'7'
p3097
I4447
sS'reminder'
p3098
I2944
sS'print'
p3099
I2166
sS'issue'
p3100
I2957
sS'defy'
p3101
I4449
sS'highway'
p3102
I788
sS'applications'
p3103
I4450
sS'dunk'
p3104
I2958
sS'nervously'
p3105
I2062
sS'reporting'
p3106
I3627
sS'bully'
p3107
I1158
sS'lawrence'
p3108
I1673
sS'easily'
p3109
I4452
sS'auditions'
p3110
I2168
sS'friday'
p3111
I1868
sS'hosted'
p3112
I4454
sS'horse'
p3113
I789
sS'pub'
p3114
I4455
sS'quick'
p3115
I3864
sS'johnnie'
p3116
I2960
sS'basketball'
p3117
I298
sS'cookie'
p3118
I790
sS'disneyland'
p3119
I2169
sS'members'
p3120
I2961
sS'imagine'
p3121
I4456
sS'ask'
p3122
I897
sS'teach'
p3123
I1682
sS'hunters'
p3124
I2850
sS'beginning'
p3125
I2170
sS'sidewalk'
p3126
I4458
sS'lag'
p3127
I4459
sS'temperature'
p3128
I2974
sS'bushes'
p3129
I2054
sS'driven'
p3130
I2172
sS'owners'
p3131
I2912
sS'treadmill'
p3132
I3848
sS'bets'
p3133
I4462
sS'deer'
p3134
I1705
sS'auditoriums'
p3135
I4463
sS'seasonal'
p3136
I2596
sS'snails'
p3137
I4788
sS'loaf'
p3138
I2964
sS'so'
p3139
I33
sS'noted'
p3140
I4465
sS'terribly'
p3141
I2966
sS'american'
p3142
I2173
sS'edges'
p3143
I4466
sS'expecting'
p3144
I4467
sS'sli'
p3145
I4468
sS'leading'
p3146
I2644
sS'scheduled'
p3147
I2829
sS'fallen'
p3148
I2967
sS'concussion'
p3149
I2968
sS'feed'
p3150
I4471
sS'sighed'
p3151
I3857
sS'major'
p3152
I2175
sS'mr'
p3153
I4472
sS'stepmother'
p3154
I2176
sS'slipped'
p3155
I2177
sS'feel'
p3156
I398
sS'bullies'
p3157
I2178
sS'knocking'
p3158
I4473
sS'number'
p3159
I1667
sS'fancy'
p3160
I1385
sS'traveled'
p3161
I2180
sS'feet'
p3162
I722
sS'fierce'
p3163
I2524
sS'unexpected'
p3164
I2969
sS'done'
p3165
I290
sS'biography'
p3166
I2970
sS'fees'
p3167
I2669
sS'fiction'
p3168
I2495
sS'miss'
p3169
I1160
sS'sunburn'
p3170
I2972
sS'maple'
p3171
I1386
sS'regret'
p3172
I2973
sS'ladies'
p3173
I3971
sS'story'
p3174
I723
sS'guest'
p3175
I2171
sS'jet'
p3176
I4476
sS'script'
p3177
I2181
sS'twenty'
p3178
I1387
sS'5th'
p3179
I2182
sS'swipe'
p3180
I4478
sS'threatening'
p3181
I2975
sS'least'
p3182
I4479
sS'broccoli'
p3183
I5120
sS'lilo'
p3184
I4981
sS'paint'
p3185
I628
sS'leash'
p3186
I2977
sS'wonderful'
p3187
I724
sS'smile'
p3188
I2883
sS'storm'
p3189
I386
sS'regained'
p3190
I2978
sS'hundred'
p3191
I1706
sS'jen'
p3192
I791
sS'smoothed'
p3193
I4482
sS'store'
p3194
I69
sS'headache'
p3195
I2183
sS'selling'
p3196
I1161
sS'passed'
p3197
I668
sS'relationship'
p3198
I4483
sS'behind'
p3199
I1838
sS'relieved'
p3200
I629
sS'hotel'
p3201
I902
sS'park'
p3202
I159
sS'snapping'
p3203
I3094
sS'inch'
p3204
I5111
sS'luckily'
p3205
I299
sS'part'
p3206
I1388
sS'doctors'
p3207
I2980
sS'ashley'
p3208
I1707
sS'believe'
p3209
I1004
sS'convinced'
p3210
I1390
sS'agoraphobia'
p3211
I2981
sS'king'
p3212
I630
sS'grocery'
p3213
I465
sS'grew'
p3214
I1391
sS'aaa'
p3215
I3366
sS'gotten'
p3216
I2204
sS'jesse'
p3217
I5234
sS'pc'
p3218
I4594
sS'walmart'
p3219
I4632
sS'banana'
p3220
I4488
sS'youth'
p3221
I4489
sS'bride'
p3222
I4490
sS'greg'
p3223
I522
sS'marriage'
p3224
I4491
sS'supposed'
p3225
I2184
sS'outdoors'
p3226
I2985
sS'stale'
p3227
I4492
sS'gps'
p3228
I2185
sS'treated'
p3229
I4493
sS'remembers'
p3230
I4494
sS'dana'
p3231
I2186
sS'booth'
p3232
I2922
sS'uncomfortable'
p3233
I2187
sS'honeymoon'
p3234
I4495
sS'well'
p3235
I283
sS'suspicious'
p3236
I4496
sS'direct'
p3237
I4498
sS'juice'
p3238
I1709
sS'adding'
p3239
I5073
sS'graffiti'
p3240
I4499
sS'cleaned'
p3241
I792
sS'aged'
p3242
I2225
sS'chores'
p3243
I4501
sS'orders'
p3244
I2988
sS'karl'
p3245
I1710
sS'sell'
p3246
I1011
sS'mountain'
p3247
I725
sS'nights'
p3248
I4503
sS'built'
p3249
I1392
sS'odd'
p3250
I3126
sS'self'
p3251
I2188
sS'trapped'
p3252
I2979
sS'spied'
p3253
I4504
sS'couch'
p3254
I1394
sS'lit'
p3255
I2990
sS'also'
p3256
I273
sS'ironically'
p3257
I4505
sS'dust'
p3258
I5119
sS'hoards'
p3259
I4604
sS'build'
p3260
I3812
sS'organizations'
p3261
I4771
sS'finding'
p3262
I2189
sS'pouring'
p3263
I4508
sS'hello'
p3264
I3944
sS'transparent'
p3265
I4511
sS'frequently'
p3266
I2991
sS'play'
p3267
I95
sS'towards'
p3268
I1395
sS'needle'
p3269
I2992
sS'albert'
p3270
I2993
sS'eggs'
p3271
I596
sS'english'
p3272
I3285
sS'reach'
p3273
I669
sS'mosh'
p3274
I4513
sS'reunited'
p3275
I2190
sS'interviewed'
p3276
I4485
sS'allergy'
p3277
I4514
sS'most'
p3278
I554
sS'virus'
p3279
I4515
sS'hired'
p3280
I670
sS'thank'
p3281
I5172
sS'plan'
p3282
I1006
sS'eaten'
p3283
I2995
sS'nothing'
p3284
I1007
sS'checkers'
p3285
I1396
sS'kay'
p3286
I793
sS'extremely'
p3287
I1711
sS'achievement'
p3288
I2996
sS'france'
p3289
I4699
sS'bug'
p3290
I2192
sS'windows'
p3291
I2998
sS'calling'
p3292
I2105
sS'wore'
p3293
I2055
sS'dentist'
p3294
I366
sS'drifts'
p3295
I4517
sS'hints'
p3296
I4518
sS'cramped'
p3297
I4519
sS'artistic'
p3298
I3541
sS'clean'
p3299
I291
sS'nyc'
p3300
I4520
sS'latest'
p3301
I3205
sS'physics'
p3302
I3001
sS'dragged'
p3303
I3002
sS'lying'
p3304
I2193
sS'watermelon'
p3305
I3003
sS'thomas'
p3306
I1399
sS'celebrated'
p3307
I3873
sS'golf'
p3308
I794
sS'rebels'
p3309
I4522
sS'gold'
p3310
I903
sS'phoebe'
p3311
I4523
sS'swelling'
p3312
I3004
sS'aghast'
p3313
I3006
sS'awkward'
p3314
I4525
sS'wasted'
p3315
I3540
sS'carefully'
p3316
I904
sS'newest'
p3317
I1712
sS'melody'
p3318
I795
sS'valet'
p3319
I4803
sS'fine'
p3320
I2194
sS'find'
p3321
I218
sS'costing'
p3322
I3007
sS'faces'
p3323
I2195
sS'cell'
p3324
I4804
sS'giant'
p3325
I597
sS'paints'
p3326
I2849
sS'upwards'
p3327
I5206
sS'nervous'
p3328
I79
sS'scooter'
p3329
I2196
sS'writer'
p3330
I2197
sS'afterward'
p3331
I4527
sS'unhappy'
p3332
I3009
sS'failed'
p3333
I2198
sS'randy'
p3334
I2199
sS'pretty'
p3335
I726
sS'fiend'
p3336
I1713
sS'8'
p3337
I3010
sS'indian'
p3338
I3132
sS'begins'
p3339
I3788
sS'his'
p3340
I13
sS'hit'
p3341
I349
sS'therefore'
p3342
I4530
sS'hiv'
p3343
I4531
sS'meanwhile'
p3344
I4532
sS'luke'
p3345
I1400
sS'express'
p3346
I4533
sS'sunny'
p3347
I2200
sS'kind'
p3348
I1714
sS'trees'
p3349
I1715
sS'cheaper'
p3350
I4534
sS'famous'
p3351
I3172
sS'feels'
p3352
I1401
sS'courage'
p3353
I4536
sS'hid'
p3354
I1778
sS'preparing'
p3355
I811
sS'pretending'
p3356
I1402
sS'basement'
p3357
I1225
sS'during'
p3358
I367
sS'69'
p3359
I4140
sS'him'
p3360
I37
sS'distraction'
p3361
I4537
sS'allston'
p3362
I1717
sS'huff'
p3363
I4538
sS'catcher'
p3364
I2203
sS'noises'
p3365
I4864
sS'racially'
p3366
I3684
sS'paddling'
p3367
I4541
sS'cry'
p3368
I1718
sS'collapsed'
p3369
I4060
sS'clinic'
p3370
I5131
sS'remove'
p3371
I1719
sS'sacrifices'
p3372
I4544
sS'investigate'
p3373
I1720
sS'laughing'
p3374
I3072
sS'common'
p3375
I4323
sS'double'
p3376
I4637
sS'x'
p3377
I3012
sS'river'
p3378
I598
sS'snowstorm'
p3379
I3013
sS'wrote'
p3380
I1008
sS'approaching'
p3381
I4547
sS'sew'
p3382
I4548
sS'scenery'
p3383
I4808
sS'cramp'
p3384
I2206
sS'set'
p3385
I423
sS'art'
p3386
I599
sS'bart'
p3387
I4550
sS'dump'
p3388
I1721
sS'throwing'
p3389
I4551
sS'enabled'
p3390
I4552
sS'advertised'
p3391
I5132
sS'arrives'
p3392
I3045
sS'lion'
p3393
I1206
sS'defense'
p3394
I3222
sS'leslie'
p3395
I2664
sS'are'
p3396
I335
sS'sea'
p3397
I3014
sS'fellow'
p3398
I4558
sS'close'
p3399
I796
sS'angie'
p3400
I1722
sS'arm'
p3401
I671
sS'allie'
p3402
I2208
sS'cozy'
p3403
I4241
sS'project'
p3404
I1251
sS'learns'
p3405
I3016
sS'raccoons'
p3406
I4811
sS'expert'
p3407
I4560
sS'visiting'
p3408
I1724
sS'pictures'
p3409
I736
sS'currently'
p3410
I3017
sS'slapped'
p3411
I4561
sS'crossword'
p3412
I4562
sS'fans'
p3413
I1801
sS'determined'
p3414
I466
sS'various'
p3415
I4563
sS'probably'
p3416
I2044
sS'burned'
p3417
I3020
sS'donate'
p3418
I3021
sS'jasmin'
p3419
I1725
sS'compliment'
p3420
I4564
sS'knowing'
p3421
I2641
sS'solo'
p3422
I2210
sS'rosie'
p3423
I797
sS'recently'
p3424
I441
sS'missing'
p3425
I905
sS'initially'
p3426
I4565
sS'intimidated'
p3427
I4566
sS'sold'
p3428
I906
sS'attention'
p3429
I1163
sS'outfit'
p3430
I3023
sS'spray'
p3431
I4567
sS'renewed'
p3432
I4568
sS'breakup'
p3433
I4836
sS'shaped'
p3434
I4660
sS'litter'
p3435
I4569
sS'ax'
p3436
I4512
sS'veterinarian'
p3437
I4571
sS'zipper'
p3438
I4573
sS'bone'
p3439
I4574
sS'both'
p3440
I336
sS'c'
p3441
I2211
sS'shill'
p3442
I3677
sS'last'
p3443
I205
sS'skilled'
p3444
I4254
sS'license'
p3445
I1405
sS'restaurant'
p3446
I244
sS'fiance'
p3447
I4576
sS'carelessness'
p3448
I3024
sS'barely'
p3449
I3025
sS'foreign'
p3450
I2212
sS'bandit'
p3451
I2213
sS'thinking'
p3452
I1646
sS'connection'
p3453
I3026
sS'became'
p3454
I280
sS'campfire'
p3455
I3027
sS'annie'
p3456
I1164
sS'forgotten'
p3457
I2214
sS'collection'
p3458
I1777
sS'focused'
p3459
I1407
sS'whole'
p3460
I350
sS'finds'
p3461
I798
sS'hikes'
p3462
I5252
sS'spilling'
p3463
I4897
sS'insurance'
p3464
I2954
sS'liked'
p3465
I300
sS'flier'
p3466
I3028
sS'danced'
p3467
I2079
sS'jeff'
p3468
I518
sS'simple'
p3469
I3029
sS'sky'
p3470
I1220
sS'acted'
p3471
I4579
sS'fitness'
p3472
I4580
sS'sweep'
p3473
I4581
sS'community'
p3474
I672
sS'goldfish'
p3475
I1094
sS'antelope'
p3476
I4883
sS'dancer'
p3477
I907
sS'likes'
p3478
I1165
sS'church'
p3479
I799
sS'volunteered'
p3480
I4583
sS'throughout'
p3481
I2215
sS'kick'
p3482
I4584
sS'goats'
p3483
I4585
sS'expensive'
p3484
I800
sS'patiently'
p3485
I1726
sS'dj'
p3486
I4586
sS'sailboat'
p3487
I3933
sS'sundaes'
p3488
I3030
sS'cream'
p3489
I347
sS'raise'
p3490
I801
sS'scented'
p3491
I4589
sS'acceptance'
p3492
I4591
sS'political'
p3493
I4592
sS'due'
p3494
I1166
sS'mikey'
p3495
I1727
sS'dug'
p3496
I3031
sS'hitting'
p3497
I4593
sS'runner'
p3498
I2932
sS'secret'
p3499
I4595
sS'pa'
p3500
I4596
sS'ireland'
p3501
I1409
sS'cayla'
p3502
I1916
sS'collected'
p3503
I2139
sS'waving'
p3504
I4294
sS'meeting'
p3505
I2216
sS'woke'
p3506
I337
sS'treatment'
p3507
I1846
sS'firm'
p3508
I2218
sS'resting'
p3509
I4599
sS'socks'
p3510
I5194
sS'lived'
p3511
I1410
sS'flight'
p3512
I631
sS'squirrel'
p3513
I1728
sS'fire'
p3514
I1411
sS'lulu'
p3515
I1412
sS'interviewer'
p3516
I4526
sS'crack'
p3517
I2392
sS'gas'
p3518
I802
sS'else'
p3519
I2219
sS'anthony'
p3520
I3032
sS'fund'
p3521
I4602
sS'whatever'
p3522
I3033
sS'races'
p3523
I1729
sS'lives'
p3524
I1010
sS'whitney'
p3525
I1852
sS'misbehaving'
p3526
I3034
sS'varsity'
p3527
I3828
sS'prices'
p3528
I1044
sS'incoming'
p3529
I3886
sS'wedding'
p3530
I455
sS'instructor'
p3531
I3035
sS'plants'
p3532
I3036
sS'stolen'
p3533
I1168
sS'fur'
p3534
I1731
sS'look'
p3535
I301
sS'raw'
p3536
I4606
sS'frozen'
p3537
I1169
sS'balloons'
p3538
I4607
sS'straight'
p3539
I1732
sS'bill'
p3540
I208
sS'budget'
p3541
I1413
sS'rope'
p3542
I3037
sS'dusty'
p3543
I4608
sS'while'
p3544
I224
sS'shallow'
p3545
I4956
sS'replaced'
p3546
I2220
sS'smart'
p3547
I2221
sS'behavior'
p3548
I2222
sS'error'
p3549
I4364
sS'fun'
p3550
I245
sS'kissing'
p3551
I3038
sS'guide'
p3552
I2223
sS'cages'
p3553
I3039
sS'pack'
p3554
I1414
sS'real'
p3555
I1013
sS'pound'
p3556
I3040
sS'stall'
p3557
I3769
sS'hoping'
p3558
I2453
sS'heroically'
p3559
I4610
sS'incredible'
p3560
I1825
sS'suspended'
p3561
I4612
sS'reads'
p3562
I1733
sS'frantic'
p3563
I4614
sS'darrell'
p3564
I1734
sS'triple'
p3565
I2224
sS'beautifully'
p3566
I4539
sS'ready'
p3567
I230
sS'rid'
p3568
I1735
sS'corpse'
p3569
I3575
sS'funny'
p3570
I1736
sS'decor'
p3571
I4617
sS'kari'
p3572
I2987
sS'italy'
p3573
I3043
sS'shirt'
p3574
I2226
sS'anymore'
p3575
I908
sS'dunn'
p3576
I4336
sS'estimate'
p3577
I4619
sS'belong'
p3578
I2227
sS'biochemistry'
p3579
I4620
sS'fading'
p3580
I4621
sS'port'
p3581
I2228
sS'read'
p3582
I215
sS'complaints'
p3583
I4622
sS'9'
p3584
I3044
sS'ray'
p3585
I4624
sS'composition'
p3586
I4625
sS'evidence'
p3587
I4444
sS'higher'
p3588
I2229
sS'lid'
p3589
I4502
sS'used'
p3590
I376
sS'knitting'
p3591
I2494
sS'infestation'
p3592
I4628
sS'ballerina'
p3593
I2230
sS'flooded'
p3594
I1416
sS'assignment'
p3595
I4629
sS'gallery'
p3596
I4998
sS'defeat'
p3597
I3140
sS'yesterday'
p3598
I803
sS'grilling'
p3599
I4630
sS'stacy'
p3600
I1171
sS'usually'
p3601
I4631
sS'moment'
p3602
I1418
sS'000'
p3603
I4506
sS'moving'
p3604
I728
sS'cleaning'
p3605
I2231
sS'remote'
p3606
I5213
sS'sandals'
p3607
I1737
sS'weird'
p3608
I1541
sS'consulted'
p3609
I4155
sS'early'
p3610
I422
sS'beanie'
p3611
I2232
sS'task'
p3612
I1915
sS'deny'
p3613
I5001
sS'picky'
p3614
I2233
sS'older'
p3615
I1172
sS'makes'
p3616
I1647
sS'chickens'
p3617
I4635
sS'spent'
p3618
I292
sS'county'
p3619
I4636
sS'phil'
p3620
I324
sS'undressed'
p3621
I4891
sS'person'
p3622
I519
sS'cheer'
p3623
I2235
sS'salvatore'
p3624
I4638
sS'kelly'
p3625
I729
sS'organization'
p3626
I4639
sS'spend'
p3627
I4553
sS'yankees'
p3628
I3047
sS'confirm'
p3629
I4220
sS'chore'
p3630
I4641
sS'soaked'
p3631
I3048
sS'listening'
p3632
I2237
sS'knocks'
p3633
I4642
sS'competitive'
p3634
I3612
sS'quarters'
p3635
I3049
sS'shape'
p3636
I1173
sS'thorough'
p3637
I4644
sS'questions'
p3638
I4645
sS'using'
p3639
I730
sS'retired'
p3640
I1420
sS'metallic'
p3641
I3567
sS'</s>'
p3642
I3
sS'happening'
p3643
I5181
sS'collide'
p3644
I4646
sS'discipline'
p3645
I3638
sS'tables'
p3646
I4648
sS'cut'
p3647
I368
sS'$'
p3648
I673
sS'tablet'
p3649
I4649
sS'cup'
p3650
I1174
sS'fiancee'
p3651
I3051
sS'hated'
p3652
I828
sS'admission'
p3653
I3052
sS'danger'
p3654
I4650
sS'kissed'
p3655
I3279
sS'chest'
p3656
I4651
sS'brewed'
p3657
I4652
sS'eager'
p3658
I601
sS'causing'
p3659
I3054
sS'parents'
p3660
I209
sS'location'
p3661
I2240
sS'crying'
p3662
I4653
sS'snap'
p3663
I3055
sS'easter'
p3664
I3057
sS'excited'
p3665
I46
sS'surprised'
p3666
I674
sS'niece'
p3667
I1917
sS"james'tooth"
p3668
I3059
sS'complaint'
p3669
I3060
sS'vendor'
p3670
I1739
sS'amended'
p3671
I3061
sS'emergency'
p3672
I1175
sS'big'
p3673
I145
sS'couple'
p3674
I314
sS'hatch'
p3675
I2493
sS'matters'
p3676
I4655
sS'game'
p3677
I109
sS'clutched'
p3678
I4656
sS'marcy'
p3679
I731
sS'nods'
p3680
I4657
sS'vending'
p3681
I2835
sS'bit'
p3682
I442
sS'miscarriage'
p3683
I3655
sS'projects'
p3684
I4658
sS'belly'
p3685
I4659
sS'knock'
p3686
I1961
sS'lost'
p3687
I390
sS'deflated'
p3688
I4170
sS'retake'
p3689
I3064
sS'follows'
p3690
I3065
sS'message'
p3691
I4661
sS'raisins'
p3692
I4662
sS'holes'
p3693
I3107
sS'glove'
p3694
I4663
sS'ignore'
p3695
I3742
sS'collect'
p3696
I4664
sS'arthur'
p3697
I1421
sS'continue'
p3698
I3970
sS'manhole'
p3699
I4957
sS'popular'
p3700
I1422
sS'foolish'
p3701
I4666
sS'sprinklers'
p3702
I4667
sS'oak'
p3703
I5237
sS'scare'
p3704
I3209
sS'partying'
p3705
I2393
sS'often'
p3706
I1085
sS'spring'
p3707
I2243
sS'nepalese'
p3708
I4668
sS'some'
p3709
I113
sS'back'
p3710
I106
sS'understood'
p3711
I3067
sS'lips'
p3712
I3068
sS'added'
p3713
I2244
sS'candy'
p3714
I1475
sS'sight'
p3715
I4669
sS'mirror'
p3716
I1741
sS'curious'
p3717
I1086
sS'mustang'
p3718
I4427
sS"'ve"
p3719
I909
sS'pale'
p3720
I4671
sS'ourselves'
p3721
I4672
sS'delivered'
p3722
I4673
sS'ursula'
p3723
I3018
sS'lizzy'
p3724
I4675
sS'floral'
p3725
I4940
sS'jewelry'
p3726
I3069
sS'pet'
p3727
I302
sS'tools'
p3728
I4833
sS'decision'
p3729
I1423
sS'proficient'
p3730
I4677
sS'pep'
p3731
I4678
sS'per'
p3732
I3070
sS'seller'
p3733
I3011
sS'flashed'
p3734
I4679
sS'volunteering'
p3735
I4680
sS'prom'
p3736
I1743
sS'lamarrio'
p3737
I1744
sS'sneakers'
p3738
I2245
sS'ticking'
p3739
I4681
sS'isolated'
p3740
I4682
sS'dating'
p3741
I2247
sS'eater'
p3742
I2248
sS'anna'
p3743
I443
sS'nose'
p3744
I1755
sS'be'
p3745
I50
sS'flute'
p3746
I4683
sS'eating'
p3747
I733
sS'bulbs'
p3748
I3905
sS'remembered'
p3749
I1424
sS'salmon'
p3750
I2250
sS'martin'
p3751
I2251
sS'continuing'
p3752
I3073
sS'fed'
p3753
I2151
sS'smiths'
p3754
I3075
sS'refused'
p3755
I1178
sS'step'
p3756
I3076
sS'fee'
p3757
I2292
sS'chanting'
p3758
I4684
sS'nowhere'
p3759
I1746
sS'santa'
p3760
I632
sS'vitals'
p3761
I3896
sS'lottery'
p3762
I910
sS'carol'
p3763
I2696
sS'by'
p3764
I115
sS'elderly'
p3765
I4687
sS'vivid'
p3766
I4688
sS'cranked'
p3767
I3077
sS'changing'
p3768
I2971
sS'goods'
p3769
I4689
sS'anything'
p3770
I633
sS'mario'
p3771
I1403
sS'tore'
p3772
I4760
sS'homesick'
p3773
I4006
sS'straightened'
p3774
I4691
sS'truck'
p3775
I387
sS'graduation'
p3776
I1179
sS'audible'
p3777
I3299
sS'drama'
p3778
I3079
sS'piled'
p3779
I2252
sS'range'
p3780
I2013
sS'beans'
p3781
I1748
sS'forgave'
p3782
I4693
sS'stuart'
p3783
I1425
sS'hatred'
p3784
I3080
sS'italian'
p3785
I2253
sS'shiny'
p3786
I3081
sS'silence'
p3787
I4613
sS'seeing'
p3788
I1104
sS'jimmy'
p3789
I421
sS'plenty'
p3790
I4188
sS'garbage'
p3791
I4696
sS'hometown'
p3792
I1749
sS'into'
p3793
I118
sS'within'
p3794
I1426
sS'nonsense'
p3795
I3979
sS'democrat'
p3796
I2953
sS'services'
p3797
I4697
sS'pepperoni'
p3798
I4013
sS'smelly'
p3799
I3085
sS'tightly'
p3800
I4698
sS'lesson'
p3801
I1750
sS'sports'
p3802
I2234
sS'smells'
p3803
I4700
sS'katie'
p3804
I805
sS'calming'
p3805
I3086
sS'impressed'
p3806
I1427
sS'arcade'
p3807
I2254
sS'sneaky'
p3808
I4701
sS'spending'
p3809
I2255
sS'motrin'
p3810
I4702
sS'placing'
p3811
I4703
sS'lone'
p3812
I2131
sS'handles'
p3813
I2165
sS'fast'
p3814
I467
sS'doubt'
p3815
I3370
sS'preordered'
p3816
I4705
sS'refrigerator'
p3817
I3089
sS'homemade'
p3818
I2042
sS'suit'
p3819
I4033
sS'forward'
p3820
I1428
sS'walls'
p3821
I4707
sS'bored'
p3822
I1014
sS'athlete'
p3823
I4789
sS'opens'
p3824
I2256
sS'opponent'
p3825
I4708
sS'mountains'
p3826
I675
sS'himself'
p3827
I281
sS'receiving'
p3828
I4709
sS'inches'
p3829
I4710
sS'poster'
p3830
I4711
sS'relaxed'
p3831
I2257
sS'pastor'
p3832
I2258
sS'searching'
p3833
I2398
sS'boys'
p3834
I1752
sS'larry'
p3835
I303
sS'crank'
p3836
I4712
sS'alive'
p3837
I2399
sS'filed'
p3838
I4713
sS'hopes'
p3839
I2260
sS'line'
p3840
I315
sS'reel'
p3841
I4470
sS'dull'
p3842
I3090
sS'posted'
p3843
I3091
sS'improvement'
p3844
I4715
sS'checkout'
p3845
I4582
sS'cups'
p3846
I4474
sS'fries'
p3847
I1429
sS'up'
p3848
I36
sS'us'
p3849
I602
sS"'re"
p3850
I1753
sS'cartwheel'
p3851
I2795
sS'faded'
p3852
I4486
sS'cheeks'
p3853
I4841
sS'lou'
p3854
I4263
sS'called'
p3855
I220
sS'yelled'
p3856
I1182
sS'bell'
p3857
I4718
sS'nachos'
p3858
I3581
sS'sometimes'
p3859
I3093
sS'ordered'
p3860
I316
sS'snatched'
p3861
I2841
sS'chad'
p3862
I557
sS'roared'
p3863
I4720
sS'cover'
p3864
I3000
sS'``'
p3865
I3095
sS'starbucks'
p3866
I4721
sS'single'
p3867
I1015
sS'warning'
p3868
I1637
sS'evening'
p3869
I750
sS'chat'
p3870
I3098
sS'leaf'
p3871
I4741
sS'rally'
p3872
I1756
sS'modeling'
p3873
I4723
sS'cafe'
p3874
I3099
sS'kidney'
p3875
I2264
sS'brush'
p3876
I4545
sS'rainbow'
p3877
I3100
sS'rainy'
p3878
I1757
sS'peter'
p3879
I5165
sS'lemon'
p3880
I3101
sS'peach'
p3881
I2266
sS'painters'
p3882
I4724
sS'ascent'
p3883
I4725
sS'pat'
p3884
I3102
sS'fears'
p3885
I1183
sS'dimmed'
p3886
I4726
sS'nicu'
p3887
I4727
sS'application'
p3888
I1184
sS'nap'
p3889
I1185
sS'caterpillar'
p3890
I4728
sS'pour'
p3891
I4851
sS'becomes'
p3892
I1538
sS'department'
p3893
I4729
sS'researching'
p3894
I4249
sS'kira'
p3895
I806
sS'wishing'
p3896
I2724
sS'nice'
p3897
I274
sS'fights'
p3898
I4730
sS'apparent'
p3899
I4731
sS'scrub'
p3900
I4732
sS'mustard'
p3901
I4217
sS'provided'
p3902
I4218
sS'printing'
p3903
I4572
sS'problems'
p3904
I1186
sS'pretended'
p3905
I1758
sS'prepared'
p3906
I468
sS'helping'
p3907
I2270
sS'drag'
p3908
I4737
sS'outs'
p3909
I4738
sS'evan'
p3910
I4739
sS'smiled'
p3911
I2271
sS'smartest'
p3912
I4740
sS'posters'
p3913
I3560
sS'formal'
p3914
I4742
sS'futon'
p3915
I2445
sS'ticks'
p3916
I5240
sS'sides'
p3917
I4018
sS'structure'
p3918
I4745
sS'ago'
p3919
I782
sS'urged'
p3920
I3872
sS'lane'
p3921
I1759
sS'land'
p3922
I1760
sS'e'
p3923
I1356
sS'lead'
p3924
I5171
sS'vice'
p3925
I4749
sS'valuables'
p3926
I4750
sS'tubes'
p3927
I3105
sS'age'
p3928
I520
sS'required'
p3929
I3106
sS'backed'
p3930
I2585
sS'consoles'
p3931
I3915
sS'walked'
p3932
I225
sS'attacking'
p3933
I4412
sS'cooked'
p3934
I1430
sS'summit'
p3935
I4751
sS'weights'
p3936
I4752
sS'finishes'
p3937
I5082
sS'far'
p3938
I2272
sS'fresh'
p3939
I1761
sS'bare'
p3940
I4557
sS'berries'
p3941
I4753
sS'requires'
p3942
I4302
sS'having'
p3943
I179
sS'once'
p3944
I558
sS'essay'
p3945
I4754
sS'amish'
p3946
I2125
sS'jason'
p3947
I634
sS'rabbit'
p3948
I3149
sS'scooped'
p3949
I4755
sS'scratch'
p3950
I2274
sS'splashing'
p3951
I4756
sS'thanking'
p3952
I4757
sS'totem'
p3953
I912
sS'steve'
p3954
I1188
sS'weatherman'
p3955
I3737
sS'hyper'
p3956
I4521
sS'groceries'
p3957
I4759
sS'legal'
p3958
I4223
sS'limousine'
p3959
I3792
sS'go'
p3960
I34
sS'particularly'
p3961
I2275
sS'shrugged'
p3962
I4761
sS'kate'
p3963
I807
sS'issues'
p3964
I4032
sS'seemed'
p3965
I1762
sS'bars'
p3966
I4763
sS'rhonda'
p3967
I3111
sS'procedure'
p3968
I4308
sS'saleswoman'
p3969
I2904
sS'marveled'
p3970
I3593
sS'peanut'
p3971
I2557
sS'concerned'
p3972
I3113
sS'avoid'
p3973
I2465
sS'young'
p3974
I338
sS'mower'
p3975
I2140
sS'lower'
p3976
I4766
sS'topic'
p3977
I3115
sS'dealership'
p3978
I1650
sS'helps'
p3979
I3116
sS'attend'
p3980
I4872
sS'mowed'
p3981
I3117
sS'dislike'
p3982
I4767
sS'carelessly'
p3983
I4376
sS'friendly'
p3984
I1190
sS'sent'
p3985
I489
sS'ingredient'
p3986
I3118
sS'rag'
p3987
I4231
sS'edna'
p3988
I3924
sS'wished'
p3989
I2269
sS'garden'
p3990
I351
sS'ukulele'
p3991
I4770
sS'outside'
p3992
I252
sS'ophelia'
p3993
I1296
sS'reserved'
p3994
I4516
sS'gina'
p3995
I2276
sS'kitty'
p3996
I808
sS'huddled'
p3997
I4524
sS'developer'
p3998
I4820
sS'spoon'
p3999
I4776
sS'crosses'
p4000
I3119
sS'facebook'
p4001
I3120
sS'bosses'
p4002
I5176
sS'telling'
p4003
I4777
sS'practicing'
p4004
I1764
sS'surgeon'
p4005
I1503
sS'mid'
p4006
I4982
sS'continued'
p4007
I2278
sS'legos'
p4008
I4778
sS'entire'
p4009
I676
sS'magic'
p4010
I2279
sS'sparked'
p4011
I4453
sS'stiff'
p4012
I4779
sS'blessed'
p4013
I4255
sS'positions'
p4014
I4781
sS'notes'
p4015
I2263
sS'shock'
p4016
I4416
sS'michael'
p4017
I2280
sS'reschedule'
p4018
I4783
sS'ryan'
p4019
I901
sS'try'
p4020
I189
sS'skipped'
p4021
I4785
sS'race'
p4022
I250
sS'kit'
p4023
I4786
sS'gauge'
p4024
I4787
sS'inspection'
p4025
I4081
sS'challenge'
p4026
I2723
sS'sewage'
p4027
I4790
sS'joey'
p4028
I559
sS'picker'
p4029
I4791
sS'someday'
p4030
I2281
sS'cap'
p4031
I2708
sS'carter'
p4032
I3124
sS'bleeding'
p4033
I4792
sS'carly'
p4034
I2282
sS'uncle'
p4035
I2578
sS'ham'
p4036
I4794
sS'boots'
p4037
I4795
sS'maintain'
p4038
I4796
sS'jump'
p4039
I2283
sS'ruptured'
p4040
I3125
sS'carla'
p4041
I2984
sS'carted'
p4042
I3406
sS'video'
p4043
I317
sS'traveling'
p4044
I809
sS'picked'
p4045
I444
sS'reunion'
p4046
I677
sS'download'
p4047
I2284
sS'spaghetti'
p4048
I1393
sS'hopped'
p4049
I4237
sS'gregs'
p4050
I3127
sS'graduating'
p4051
I3128
sS'waitress'
p4052
I3129
sS'frenemy'
p4053
I3130
sS'plays'
p4054
I521
sS'power'
p4055
I3131
sS'junior'
p4056
I4799
sS'wallet'
p4057
I768
sS'giving'
p4058
I1765
sS'caffeine'
p4059
I4339
sS'raincoat'
p4060
I3280
sS'hardest'
p4061
I4801
sS'paddle'
p4062
I4802
sS'economics'
p4063
I3780
sS'holidays'
p4064
I4084
sS'seconds'
p4065
I4775
sS'waiting'
p4066
I603
sS'applesauce'
p4067
I2403
sS'<padding>'
p4068
I0
sS'electricity'
p4069
I3133
sS'rotted'
p4070
I1766
sS'occupation'
p4071
I4078
sS'bird'
p4072
I1017
sS'exercise'
p4073
I913
sS'bowled'
p4074
I3592
sS'body'
p4075
I2205
sS'sharks'
p4076
I1664
sS'inspect'
p4077
I4434
sS'led'
p4078
I4810
sS'chose'
p4079
I734
sS'degree'
p4080
I1723
sS'leg'
p4081
I469
sS'gathered'
p4082
I1191
sS'pushing'
p4083
I4812
sS'punch'
p4084
I3134
sS'highly'
p4085
I3395
sS'believed'
p4086
I2286
sS'let'
p4087
I388
sS'others'
p4088
I1433
sS'sing'
p4089
I1767
sS'fifteen'
p4090
I2288
sS'latches'
p4091
I4815
sS'extreme'
p4092
I3135
sS'decorating'
p4093
I3121
sS'waste'
p4094
I4816
sS'great'
p4095
I58
sS'talent'
p4096
I1192
sS'toast'
p4097
I2285
sS'receive'
p4098
I2289
sS'involved'
p4099
I3836
sS'casino'
p4100
I1193
sS'shades'
p4101
I3136
sS'complimented'
p4102
I2032
sS'35'
p4103
I3138
sS'leaving'
p4104
I2366
sS'engine'
p4105
I1434
sS'sweaters'
p4106
I4818
sS'tires'
p4107
I3139
sS'survey'
p4108
I4819
sS'advised'
p4109
I4093
sS'derby'
p4110
I1417
sS'popcorn'
p4111
I2290
sS'opinion'
p4112
I4821
sS'climb'
p4113
I3141
sS'stephanie'
p4114
I914
sS'explain'
p4115
I3603
sS'noodles'
p4116
I3142
sS'composed'
p4117
I4823
sS'control'
p4118
I2304
sS'named'
p4119
I445
sS'daybreak'
p4120
I4824
sS'busking'
p4121
I3143
sS'apple'
p4122
I561
sS'spy'
p4123
I2009
sS'crashing'
p4124
I2779
sS'win'
p4125
I604
sS'charge'
p4126
I3199
sS'shoved'
p4127
I4826
sS'apprehensive'
p4128
I4827
sS'dedicated'
p4129
I4828
sS'private'
p4130
I4829
sS'expect'
p4131
I4830
sS'pasta'
p4132
I1477
sS'names'
p4133
I4832
sS'frame'
p4134
I5041
sS'apply'
p4135
I1768
sS'minivan'
p4136
I4393
sS'chilly'
p4137
I4929
sS'singing'
p4138
I4676
sS'standing'
p4139
I3144
sS'use'
p4140
I678
sS'cheered'
p4141
I804
sS'from'
p4142
I64
sS'excursions'
p4143
I4094
sS'chefs'
p4144
I4835
sS'yowling'
p4145
I3305
sS'snacks'
p4146
I2293
sS'readable'
p4147
I4837
sS'amidst'
p4148
I4838
sS'frog'
p4149
I1194
sS'next'
p4150
I127
sS'few'
p4151
I172
sS'camera'
p4152
I1018
sS'beaches'
p4153
I4240
sS'cub'
p4154
I4839
sS'themselves'
p4155
I3145
sS'hiding'
p4156
I3146
sS'rick'
p4157
I4197
sS'sort'
p4158
I4842
sS'pencil'
p4159
I2294
sS'popped'
p4160
I2295
sS'disgust'
p4161
I4843
sS'upcoming'
p4162
I2296
sS'porch'
p4163
I2297
sS'started'
p4164
I128
sS'halloween'
p4165
I915
sS'gi'
p4166
I4762
sS'musician'
p4167
I2298
sS'impress'
p4168
I3148
sS'about'
p4169
I54
sS'resume'
p4170
I4448
sS'trail'
p4171
I1435
sS'train'
p4172
I635
sS'talks'
p4173
I2534
sS'baby'
p4174
I168
sS'lifestyle'
p4175
I2406
sS'flawless'
p4176
I4846
sS'courtroom'
p4177
I4847
sS'casserole'
p4178
I3150
sS'subscription'
p4179
I1195
sS'customer'
p4180
I3151
sS'escaped'
p4181
I2306
sS'account'
p4182
I1770
sS'balls'
p4183
I1436
sS'animals'
p4184
I1019
sS'salad'
p4185
I3153
sS'f'
p4186
I4782
sS'this'
p4187
I169
sS'ride'
p4188
I339
sS'tease'
p4189
I3687
sS'tinted'
p4190
I4850
sS'blender'
p4191
I4806
sS'donut'
p4192
I1437
sS'arches'
p4193
I2302
sS'anywhere'
p4194
I3154
sS'crossed'
p4195
I3155
sS'thin'
p4196
I4852
sS'island'
p4197
I1625
sS'co'
p4198
I5067
sS'meet'
p4199
I470
sS'drops'
p4200
I2303
sS'grin'
p4201
I4853
sS'biscuit'
p4202
I4854
sS'embezzled'
p4203
I3156
sS'performed'
p4204
I3157
sS'point'
p4205
I1369
sS'boulder'
p4206
I4528
sS'slid'
p4207
I3158
sS'status'
p4208
I5254
sS'patrol'
p4209
I1438
sS'bent'
p4210
I4855
sS'thirsty'
p4211
I3159
sS'plate'
p4212
I928
sS'process'
p4213
I2305
sS'carpet'
p4214
I4314
sS'rode'
p4215
I1020
sS'pieces'
p4216
I1021
sS'high'
p4217
I364
sS'allnighter'
p4218
I3160
sS'tag'
p4219
I3161
sS'pulling'
p4220
I2307
sS'something'
p4221
I251
sS'slip'
p4222
I1771
sS'fligh'
p4223
I4857
sS'sought'
p4224
I4858
sS'cartwheels'
p4225
I3608
sS'trumpet'
p4226
I1772
sS'lamb'
p4227
I1439
sS'rumble'
p4228
I3478
sS'sip'
p4229
I3465
sS'colorful'
p4230
I3609
sS'memorize'
p4231
I4863
sS'sit'
p4232
I1594
sS'stole'
p4233
I2309
sS'bungee'
p4234
I4865
sS'six'
p4235
I810
sS'poetry'
p4236
I3162
sS'fortunate'
p4237
I4866
sS'delay'
p4238
I3163
sS'brian'
p4239
I4867
sS'sia'
p4240
I1773
sS'seeds'
p4241
I5188
sS'forest'
p4242
I3164
sS'animal'
p4243
I1774
sS'instead'
p4244
I258
sS'struggled'
p4245
I3165
sS'comedy'
p4246
I1023
sS'panic'
p4247
I4403
sS'airline'
p4248
I1775
sS'profile'
p4249
I3167
sS'skated'
p4250
I4869
sS'cupboard'
p4251
I4116
sS'waded'
p4252
I4871
sS'monica'
p4253
I3606
sS'taping'
p4254
I4120
sS'language'
p4255
I2036
sS'stop'
p4256
I285
sS'act'
p4257
I4245
sS'educational'
p4258
I4859
sS'tied'
p4259
I1096
sS'babysat'
p4260
I4875
sS'philosophy'
p4261
I4873
sS'abuse'
p4262
I1967
sS'preferred'
p4263
I4877
sS'hose'
p4264
I4797
sS'taco'
p4265
I4878
sS'ties'
p4266
I3169
sS'spelling'
p4267
I3170
sS'cuddling'
p4268
I4879
sS'realized'
p4269
I210
sS'chasing'
p4270
I3171
sS'objected'
p4271
I3926
sS'light'
p4272
I1022
sS'counter'
p4273
I1196
sS'lines'
p4274
I2312
sS'robot'
p4275
I4880
sS'individuals'
p4276
I4665
sS'trembling'
p4277
I4977
sS'scoop'
p4278
I4881
sS'bakery'
p4279
I4882
sS'knits'
p4280
I2458
sS'nancy'
p4281
I3174
sS'takeaway'
p4282
I3302
sS'furious'
p4283
I1800
sS'batter'
p4284
I2201
sS'addiction'
p4285
I2313
sS'lined'
p4286
I3177
sS'careened'
p4287
I3178
sS'breast'
p4288
I2202
sS'checkup'
p4289
I4247
sS'bathing'
p4290
I3459
sS'level'
p4291
I4884
sS'attain'
p4292
I4383
sS'areas'
p4293
I5032
sS'move'
p4294
I490
sS'quietly'
p4295
I3493
sS'outage'
p4296
I4735
sS'joanne'
p4297
I1780
sS'130'
p4298
I3963
sS'including'
p4299
I4887
sS'costume'
p4300
I679
sS'cruise'
p4301
I636
sS'dial'
p4302
I4888
sS'polished'
p4303
I5193
sS'bunch'
p4304
I1030
sS'perfect'
p4305
I255
sS'1'
p4306
I1919
sS'shoplifting'
p4307
I4253
sS'connected'
p4308
I4898
sS'jodi'
p4309
I4890
sS'botanical'
p4310
I3648
sS'glee'
p4311
I4892
sS'winning'
p4312
I923
sS'kindergarten'
p4313
I1781
sS'tyler'
p4314
I1440
sS'degrees'
p4315
I3183
sS'choose'
p4316
I1782
sS'shy'
p4317
I3243
sS'orange'
p4318
I1468
sS'covered'
p4319
I1441
sS'criminal'
p4320
I3185
sS'90210'
p4321
I3186
sS'2012'
p4322
I3187
sS'dad'
p4323
I352
sS'ruined'
p4324
I1442
sS'crash'
p4325
I1198
sS'fourth'
p4326
I4893
sS'nervousness'
p4327
I4894
sS'dan'
p4328
I491
sS'practice'
p4329
I735
sS'flew'
p4330
I1443
sS'invitation'
p4331
I2749
sS'cutting'
p4332
I1784
sS'snake'
p4333
I812
sS'kiss'
p4334
I1931
sS'hands'
p4335
I3188
sS'front'
p4336
I446
sS'republican'
p4337
I3189
sS'cage'
p4338
I1785
sS'day'
p4339
I31
sS'preschool'
p4340
I2316
sS'skillset'
p4341
I3190
sS'toddler'
p4342
I3166
sS'sleeve'
p4343
I4540
sS'toes'
p4344
I2902
sS'mastery'
p4345
I3191
sS'warned'
p4346
I1444
sS'university'
p4347
I1199
sS'nfl'
p4348
I1445
sS'feast'
p4349
I4899
sS'sneezed'
p4350
I2317
sS'lifetime'
p4351
I4283
sS'billy'
p4352
I370
sS'slide'
p4353
I1200
sS'trap'
p4354
I4902
sS'truth'
p4355
I4903
sS'pools'
p4356
I4904
sS'bills'
p4357
I1446
sS'shaking'
p4358
I3193
sS'patron'
p4359
I4905
sS'experienced'
p4360
I4906
sS'glasses'
p4361
I1786
sS'ratings'
p4362
I4601
sS'studios'
p4363
I2319
sS'tabby'
p4364
I4908
sS'homeless'
p4365
I4909
sS'doing'
p4366
I389
sS'adhering'
p4367
I4542
sS'buena'
p4368
I4156
sS'parties'
p4369
I3194
sS'700'
p4370
I4910
sS'pantry'
p4371
I4911
sS'society'
p4372
I4912
sS'books'
p4373
I492
sS'our'
p4374
I304
sS'80'
p4375
I4913
sS'salesman'
p4376
I3195
sS'special'
p4377
I567
sS'out'
p4378
I39
sS'martha'
p4379
I4988
sS'rex'
p4380
I1202
sS'skillet'
p4381
I4914
sS'appearance'
p4382
I5090
sS'staircase'
p4383
I3942
sS"'"
p4384
I75
sS'twice'
p4385
I2277
sS'defend'
p4386
I2322
sS'panicking'
p4387
I3196
sS'clicks'
p4388
I4916
sS'herded'
p4389
I4917
sS'ricky'
p4390
I637
sS'farm'
p4391
I2310
sS'mate'
p4392
I3197
sS'freshman'
p4393
I1618
sS'playground'
p4394
I3198
sS'fran'
p4395
I3168
sS'rec'
p4396
I3599
sS'electronics'
p4397
I3200
sS'primped'
p4398
I2431
sS'announced'
p4399
I1203
sS'piggy'
p4400
I2551
sS'afford'
p4401
I1787
sS'harold'
p4402
I930
sS'shoplift'
p4403
I3201
sS'umbrella'
p4404
I4921
sS'approached'
p4405
I1447
sS'frank'
p4406
I523
sS'activity'
p4407
I4922
sS'molly'
p4408
I1204
sS'greedy'
p4409
I3202
sS'thunderstorm'
p4410
I4874
sS'fourteen'
p4411
I3203
sS'wizard'
p4412
I3114
sS'completely'
p4413
I2444
sS'jill'
p4414
I305
sS'york'
p4415
I1050
sS'dumpster'
p4416
I2324
sS'doubles'
p4417
I3749
sS'hire'
p4418
I5029
sS'princess'
p4419
I1918
sS'brownies'
p4420
I3310
sS'scary'
p4421
I2325
sS'drowning'
p4422
I4926
sS'drinking'
p4423
I1789
sS'yard'
p4424
I399
sS'prepare'
p4425
I1790
sS'spill'
p4426
I1900
sS'steal'
p4427
I3622
sS'could'
p4428
I77
sS'hollywood'
p4429
I4927
sS'skateboard'
p4430
I1239
sS'dvd'
p4431
I4928
sS'keep'
p4432
I493
sS'conversation'
p4433
I2154
sS'explored'
p4434
I3208
sS'juilliard'
p4435
I3977
sS'unhooked'
p4436
I4931
sS'biting'
p4437
I3447
sS'footnotes'
p4438
I1792
sS'museum'
p4439
I1041
sS'anita'
p4440
I1448
sS'bahamas'
p4441
I4350
sS'resisted'
p4442
I4605
sS'blown'
p4443
I2327
sS'bouquet'
p4444
I4936
sS'saco'
p4445
I4937
sS'flyers'
p4446
I4232
sS'powerful'
p4447
I4938
sS'scene'
p4448
I2483
sS'reaches'
p4449
I2484
sS'embarrassed'
p4450
I813
sS'walter'
p4451
I2217
sS'howled'
p4452
I4549
sS'hurdle'
p4453
I2488
sS'owner'
p4454
I1449
sS'reached'
p4455
I1024
sS'blows'
p4456
I3212
sS'kidding'
p4457
I2986
sS'between'
p4458
I4942
sS'owning'
p4459
I3504
sS'mentally'
p4460
I4480
sS'succulents'
p4461
I2328
sS'management'
p4462
I4944
sS'bonus'
p4463
I1794
sS'fascinating'
p4464
I4397
sS'start'
p4465
I263
sS'festival'
p4466
I1247
sS'dove'
p4467
I3948
sS'accent'
p4468
I2329
sS'system'
p4469
I4948
sS'adopted'
p4470
I2330
sS'wagging'
p4471
I4949
sS'their'
p4472
I87
sS'cats'
p4473
I1656
sS'decorations'
p4474
I2331
sS'ankle'
p4475
I1063
sS'chemotherapy'
p4476
I3539
sS'chaser'
p4477
I4952
sS'jellyfish'
p4478
I1025
sS'behaved'
p4479
I3214
sS'final'
p4480
I3215
sS'cabin'
p4481
I4953
sS'beard'
p4482
I917
sS'groggily'
p4483
I3216
sS'shell'
p4484
I3556
sS'stomach'
p4485
I4954
sS'gear'
p4486
I3218
sS'maddie'
p4487
I3219
sS'chagrin'
p4488
I4950
sS'shelf'
p4489
I2333
sS'completed'
p4490
I2334
sS'nobody'
p4491
I2528
sS'motorcycle'
p4492
I3245
sS'megan'
p4493
I1452
sS'wound'
p4494
I3220
sS'slides'
p4495
I2335
sS'biggest'
p4496
I3313
sS'grandpa'
p4497
I2337
sS'tended'
p4498
I4554
sS'natural'
p4499
I4959
sS'july'
p4500
I2338
sS'botox'
p4501
I2339
sS'herself'
p4502
I371
sS'newlywed'
p4503
I4960
sS'stressed'
p4504
I4102
sS'loved'
p4505
I76
sS'photograph'
p4506
I1994
sS'ben'
p4507
I638
sS'boring'
p4508
I814
sS'bea'
p4509
I2340
sS'roberto'
p4510
I1540
sS'see'
p4511
I73
sS'bed'
p4512
I231
sS'tommy'
p4513
I1542
sS'frugal'
p4514
I3221
sS'appealing'
p4515
I4964
sS'individual'
p4516
I4556
sS'cravings'
p4517
I3223
sS'loves'
p4518
I400
sS'lover'
p4519
I2341
sS'visited'
p4520
I815
sS'negatively'
p4521
I4965
sS'bev'
p4522
I2665
sS'meets'
p4523
I4967
sS'bet'
p4524
I816
sS'ferry'
p4525
I4968
sS'drunk'
p4526
I1796
sS'hairstyle'
p4527
I4969
sS'bridesmaid'
p4528
I3152
sS'2014'
p4529
I3224
sS'torrentially'
p4530
I4970
sS'carrots'
p4531
I4972
sS'teenagers'
p4532
I1797
sS'comfortable'
p4533
I1798
sS'tonight'
p4534
I2343
sS'spicy'
p4535
I4265
sS'naomi'
p4536
I4974
sS'nonfiction'
p4537
I4975
sS'have'
p4538
I57
sS'edgar'
p4539
I2563
sS'need'
p4540
I817
sS'exhibit'
p4541
I3225
sS'apparently'
p4542
I2344
sS'grudgingly'
p4543
I4978
sS'microphone'
p4544
I2345
sS'afraid'
p4545
I524
sS'sprinkler'
p4546
I4979
sS'dishes'
p4547
I1453
sS'dallas'
p4548
I1454
sS'mia'
p4549
I639
sS'studying'
p4550
I756
sS'mic'
p4551
I4813
sS'billiards'
p4552
I2598
sS'able'
p4553
I96
sS'gingerly'
p4554
I3400
sS'parks'
p4555
I2346
sS'waffles'
p4556
I1455
sS'telescope'
p4557
I4983
sS'mix'
p4558
I4984
sS'sprinkled'
p4559
I3227
sS'declined'
p4560
I4985
sS'which'
p4561
I3228
sS'failure'
p4562
I4986
sS'biology'
p4563
I5179
sS'linda'
p4564
I758
sS'barn'
p4565
I4559
sS'lily'
p4566
I1799
sS'soap'
p4567
I4989
sS'realizes'
p4568
I3173
sS'combat'
p4569
I4990
sS'who'
p4570
I282
sS'kickstand'
p4571
I3229
sS'harmful'
p4572
I4992
sS'necklace'
p4573
I3176
sS'montana'
p4574
I4993
sS'eight'
p4575
I3230
sS'evacuate'
p4576
I2347
sS'lectured'
p4577
I4994
sS'prisoner'
p4578
I3485
sS'awe'
p4579
I4996
sS'striker'
p4580
I4997
sS'sally'
p4581
I918
sS'class'
p4582
I147
sS'realtor'
p4583
I4999
sS'prove'
p4584
I5000
sS'plumber'
p4585
I2646
sS'barista'
p4586
I5002
sS'consequences'
p4587
I3231
sS'brushed'
p4588
I5003
sS'tutoring'
p4589
I2191
sS'stranded'
p4590
I3232
sS'upset'
p4591
I447
sS'thanksgiving'
p4592
I1628
sS'face'
p4593
I605
sS'looked'
p4594
I162
sS'scrambled'
p4595
I2349
sS'hi'
p4596
I5005
sS'gesture'
p4597
I5006
sS'1995'
p4598
I3853
sS'movie'
p4599
I219
sS'north'
p4600
I5209
sS'occasion'
p4601
I5007
sS'skunk'
p4602
I5008
sS'painting'
p4603
I424
sS'fact'
p4604
I3233
sS'son'
p4605
I284
sS'affair'
p4606
I919
sS'atmosphere'
p4607
I5010
sS'recess'
p4608
I4958
sS'kite'
p4609
I2350
sS'brenda'
p4610
I1208
sS'kneehole'
p4611
I4125
sS'text'
p4612
I5013
sS'agreed'
p4613
I448
sS'charles'
p4614
I920
sS'overwhelmed'
p4615
I5014
sS'anyway'
p4616
I2351
sS'hamlet'
p4617
I1586
sS'connect'
p4618
I5015
sS'bring'
p4619
I1209
sS'planning'
p4620
I738
sS'parked'
p4621
I2352
sS'bedroom'
p4622
I921
sS'fear'
p4623
I562
sS'dried'
p4624
I3871
sS'pleased'
p4625
I1210
sS'thumb'
p4626
I5055
sS'principal'
p4627
I818
sS'wrestle'
p4628
I3108
sS'openings'
p4629
I5016
sS'envy'
p4630
I3880
sS'coloring'
p4631
I5018
sS'grabbed'
p4632
I1211
sS'tire'
p4633
I1027
sS'earned'
p4634
I2318
sS'danielle'
p4635
I5019
sS'downstairs'
p4636
I2354
sS'winner'
p4637
I2355
sS'jar'
p4638
I3894
sS'pickup'
p4639
I3019
sS'rash'
p4640
I2356
sS'should'
p4641
I819
sS'jan'
p4642
I1456
sS'hector'
p4643
I3235
sS'won'
p4644
I229
sS'tape'
p4645
I2701
sS'ethan'
p4646
I3237
sS'gustav'
p4647
I5021
sS'neared'
p4648
I5022
sS'tune'
p4649
I5023
sS'riding'
p4650
I2357
sS'piano'
p4651
I680
sS'handsome'
p4652
I5024
sS'local'
p4653
I131
sS'hope'
p4654
I1802
sS'melissa'
p4655
I2007
sS'exchanged'
p4656
I2550
sS'jackpot'
p4657
I5025
sS'boating'
p4658
I5026
sS'boxer'
p4659
I4692
sS'handle'
p4660
I2358
sS'listened'
p4661
I1803
sS'watching'
p4662
I820
sS'beat'
p4663
I1458
sS'midnight'
p4664
I2369
sS'props'
p4665
I4509
sS'coworker'
p4666
I1028
sS'lucky'
p4667
I3945
sS'bear'
p4668
I3240
sS'ones'
p4669
I1301
sS'meter'
p4670
I4885
sS'words'
p4671
I1804
sS'distraught'
p4672
I2209
sS'timing'
p4673
I4840
sS'applying'
p4674
I4598
sS'chips'
p4675
I3242
sS'sorts'
p4676
I3589
sS'abby'
p4677
I1805
sS'dominican'
p4678
I4987
sS'following'
p4679
I2361
sS'glory'
p4680
I5033
sS'trucks'
p4681
I5034
sS'course'
p4682
I1806
sS'cafeteria'
p4683
I5035
sS'roadtrip'
p4684
I2695
sS'married'
p4685
I449
sS'rapper'
p4686
I3244
sS'teams'
p4687
I1807
sS'whether'
p4688
I2413
sS'jaime'
p4689
I1212
sS'she'
p4690
I10
sS'wish'
p4691
I5218
sS'ohio'
p4692
I1460
sS'grab'
p4693
I1029
sS'fixed'
p4694
I1808
sS'asian'
p4695
I5037
sS'looks'
p4696
I1570
sS'spotted'
p4697
I1461
sS'available'
p4698
I4284
sS'requirement'
p4699
I5039
sS'hardwood'
p4700
I5040
sS'national'
p4701
I1113
sS'cuts'
p4702
I5042
sS'lazy'
p4703
I3246
sS'packet'
p4704
I5043
sS'breathe'
p4705
I5044
sS'lyme'
p4706
I3401
sS'computer'
p4707
I190
sS'driveway'
p4708
I1278
sS'desperate'
p4709
I5045
sS'skateboarding'
p4710
I5046
sS'muslim'
p4711
I5064
sS'humane'
p4712
I2363
sS'packed'
p4713
I2364
sS'closer'
p4714
I1462
sS'jills'
p4715
I3247
sS'puts'
p4716
I2407
sS'processed'
p4717
I5250
sS'closet'
p4718
I683
sS'record'
p4719
I2365
sS'clearing'
p4720
I4919
sS'nightmare'
p4721
I1809
sS'tool'
p4722
I4510
sS'genius'
p4723
I2367
sS'state'
p4724
I821
sS'hammock'
p4725
I5049
sS'closed'
p4726
I1463
sS'routine'
p4727
I1459
sS'limit'
p4728
I3319
sS'neither'
p4729
I2368
sS'iguana'
p4730
I1678
sS'frustrated'
p4731
I3249
sS'email'
p4732
I1464
sS'bought'
p4733
I80
sS'ken'
p4734
I1329
sS'ends'
p4735
I3250
sS'exam'
p4736
I1205
sS'widow'
p4737
I4015
sS'opening'
p4738
I3251
sS'joy'
p4739
I1811
sS'gestured'
p4740
I5052
sS'antics'
p4741
I5053
sS'job'
p4742
I59
sS'rinsed'
p4743
I3253
sS'joe'
p4744
I232
sS'key'
p4745
I2371
sS'charity'
p4746
I4768
sS'group'
p4747
I1470
sS'mailbox'
p4748
I4464
sS'selena'
p4749
I3254
sS'jon'
p4750
I958
sS'david'
p4751
I276
sS'marty'
p4752
I5056
sS'nightmares'
p4753
I5057
sS'figured'
p4754
I2373
sS'drum'
p4755
I5058
sS'handstands'
p4756
I1812
sS'career'
p4757
I494
sS'joke'
p4758
I3255
sS'invited'
p4759
I358
sS'ramp'
p4760
I1813
sS'drug'
p4761
I2374
sS'display'
p4762
I5227
sS'chosen'
p4763
I5060
sS'nicole'
p4764
I3256
sS'busted'
p4765
I5061
sS'streams'
p4766
I5062
sS'illegal'
p4767
I4269
sS'inspired'
p4768
I3257
sS'passing'
p4769
I1621
sS'vikings'
p4770
I5065
sS'kinds'
p4771
I3211
sS'journey'
p4772
I3259
sS'wear'
p4773
I684
sS'adjusted'
p4774
I5066
sS'unclear'
p4775
I3260
sS'statues'
p4776
I4178
sS'author'
p4777
I3261
sS'toilet'
p4778
I5068
sS'wall'
p4779
I1031
sS'shoving'
p4780
I5069
sS'ca'
p4781
I2375
sS'clues'
p4782
I5070
sS'boiled'
p4783
I3697
sS'walk'
p4784
I204
sS'genre'
p4785
I4570
sS'cartons'
p4786
I5071
sS'rehearsed'
p4787
I5072
sS'recognized'
p4788
I3306
sS'laugh'
p4789
I2376
sS'cousin'
p4790
I1214
sS'table'
p4791
I402
sS'lorrie'
p4792
I1814
sS'heimlich'
p4793
I4722
sS'willy'
p4794
I5075
sS'quit'
p4795
I640
sS'accomplishing'
p4796
I5076
sS'videos'
p4797
I2118
sS'cavities'
p4798
I5077
sS'swimmer'
p4799
I1032
sS'addition'
p4800
I1215
sS'swings'
p4801
I3262
sS'silvia'
p4802
I1466
sS'sara'
p4803
I1216
sS'thanked'
p4804
I3263
sS'quiz'
p4805
I1033
sS'restless'
p4806
I1702
sS'exhausted'
p4807
I3264
sS'homeschooled'
p4808
I3265
sS'drank'
p4809
I739
sS'slowly'
p4810
I1353
sS'treat'
p4811
I1815
sS'poet'
p4812
I1816
sS'curtain'
p4813
I2377
sS'proposal'
p4814
I3268
sS'improve'
p4815
I3269
sS'domino'
p4816
I5078
sS'bbq'
p4817
I5079
sS'2001'
p4818
I5080
sS'faced'
p4819
I3270
sS'mike'
p4820
I924
sS'penny'
p4821
I3271
sS'general'
p4822
I5081
sS'skied'
p4823
I5048
sS'league'
p4824
I1817
sS'painted'
p4825
I1467
sS'moved'
p4826
I362
sS'farmer'
p4827
I5083
sS'jody'
p4828
I3184
sS'finished'
p4829
I450
sS'watches'
p4830
I5084
sS'bull'
p4831
I2124
sS'smoking'
p4832
I1363
sS'aced'
p4833
I3273
sS'despite'
p4834
I1730
sS'present'
p4835
I822
sS'volunteer'
p4836
I2378
sS'wood'
p4837
I2320
sS'perseveres'
p4838
I1818
sS'novel'
p4839
I2982
sS'laser'
p4840
I5086
sS'abandoned'
p4841
I5087
sS'skinnier'
p4842
I5151
sS'plain'
p4843
I3088
sS'bahama'
p4844
I2895
sS'colton'
p4845
I4889
sS'harder'
p4846
I2897
sS'divorce'
p4847
I3275
sS'value'
p4848
I2380
sS'jukebox'
p4849
I5091
sS'will'
p4850
I471
sS'cough'
p4851
I2877
sS'persevered'
p4852
I5093
sS'owns'
p4853
I2381
sS'wild'
p4854
I3041
sS'tasty'
p4855
I5095
sS'instantly'
p4856
I2022
sS'frustrating'
p4857
I5096
sS'demote'
p4858
I3497
sS'supply'
p4859
I5097
sS'va'
p4860
I5098
sS'stuffing'
p4861
I5099
sS'annual'
p4862
I4134
sS've'
p4863
I2840
sS'almost'
p4864
I740
sS'blood'
p4865
I1154
sS'coating'
p4866
I5101
sS'surprisingly'
p4867
I4044
sS'surface'
p4868
I3276
sS'helped'
p4869
I741
sS'078'
p4870
I4886
sS'against'
p4871
I2390
sS'unmarried'
p4872
I5104
sS'politics'
p4873
I1207
sS'claimed'
p4874
I2249
sS'lambs'
p4875
I5105
sS'ava'
p4876
I2383
sS'palmed'
p4877
I4900
sS'perfectly'
p4878
I2739
sS'adored'
p4879
I5107
sS'generic'
p4880
I2384
sS'began'
p4881
I200
sS'mimi'
p4882
I5109
sS'cross'
p4883
I1471
sS'spends'
p4884
I1662
sS'member'
p4885
I2386
sS'allergies'
p4886
I4980
sS'strange'
p4887
I823
sS'digging'
p4888
I5110
sS'1996'
p4889
I3860
sS'party'
p4890
I140
sS'gets'
p4891
I348
sS'tapped'
p4892
I5112
sS'tomatoes'
p4893
I5113
sS'difficult'
p4894
I626
sS'injured'
p4895
I2387
sS'succulent'
p4896
I5115
sS'cheesesteak'
p4897
I4019
sS'ball'
p4898
I451
sS'eggplant'
p4899
I1820
sS'suzy'
p4900
I824
sS'samantha'
p4901
I1708
sS'drink'
p4902
I1035
sS'upon'
p4903
I1217
sS'effect'
p4904
I5117
sS'nightly'
p4905
I5118
sS'compared'
p4906
I5235
sS'oranges'
p4907
I3281
sS'student'
p4908
I563
sS'discouraged'
p4909
I3282
sS'infinite'
p4910
I1003
sS'yoga'
p4911
I1821
sS'whale'
p4912
I1822
sS'magician'
p4913
I1823
sS'collar'
p4914
I2976
sS'sunrise'
p4915
I5121
sS'diabetes'
p4916
I3283
sS'paycheck'
p4917
I1824
sS'off'
p4918
I137
sS'center'
p4919
I1472
sS'records'
p4920
I5122
sS'i'
p4921
I20
sS'contest'
p4922
I642
sS'seth'
p4923
I1162
sS'unpacked'
p4924
I5123
sS'fighting'
p4925
I4500
sS'antonio'
p4926
I5063
sS'thought'
p4927
I160
sS'criminals'
p4928
I4072
sS'drone'
p4929
I1036
sS'fashionable'
p4930
I5126
sS'sets'
p4931
I2994
sS'position'
p4932
I1218
sS'limp'
p4933
I4825
sS'muscle'
p4934
I3286
sS'drawing'
p4935
I3287
sS'usual'
p4936
I1826
sS'load'
p4937
I4577
sS'taller'
p4938
I3005
sS'coaster'
p4939
I1037
sS'barking'
p4940
I2388
sS'cried'
p4941
I1038
sS'less'
p4942
I3288
sS'claiming'
p4943
I5129
sS'flies'
p4944
I1219
sS'gun'
p4945
I2389
sS'distracted'
p4946
I4935
sS'flea'
p4947
I2934
sS'batteries'
p4948
I4543
sS'fishing'
p4949
I564
sS'seats'
p4950
I4163
sS'tone'
p4951
I5133
sS'paul'
p4952
I5092
sS'glue'
p4953
I3289
sS'happiness'
p4954
I3290
sS'elliot'
p4955
I4578
sS'flashlight'
p4956
I3291
sS'generous'
p4957
I5135
sS'kindness'
p4958
I5136
sS'console'
p4959
I5137
sS'ads'
p4960
I5138
sS'tight'
p4961
I5139
sS'headed'
p4962
I502
sS'smith'
p4963
I895
sS'lake'
p4964
I742
sS'bench'
p4965
I1221
sS'reasons'
p4966
I5141
sS'stylist'
p4967
I4529
sS'other'
p4968
I233
sS'adoption'
p4969
I5143
sS'raved'
p4970
I5144
sS'wet'
p4971
I1167
sS'reason'
p4972
I3293
sS'astronaut'
p4973
I3294
sS'hurry'
p4974
I2915
sS'ski'
p4975
I3295
sS'homework'
p4976
I1039
sS'tests'
p4977
I1827
sS'sonia'
p4978
I2394
sS'government'
p4979
I5145
sS'admit'
p4980
I3296
sS'utah'
p4981
I4012
sS'pants'
p4982
I2064
sS'fdavid'
p4983
I5148
sS'haul'
p4984
I5149
sS'dryer'
p4985
I5150
sS'five'
p4986
I525
sS'know'
p4987
I123
sS'desk'
p4988
I526
sS'press'
p4989
I2395
sS'immediately'
p4990
I699
sS'crayons'
p4991
I5152
sS'tick'
p4992
I3297
sS'peeked'
p4993
I1828
sS'pies'
p4994
I1829
sS'toe'
p4995
I5038
sS'loss'
p4996
I1473
sS'fleas'
p4997
I3298
sS'trash'
p4998
I1830
sS'like'
p4999
I182
sS'success'
p5000
I1176
sS'tryouts'
p5001
I1474
sS'sofa'
p5002
I2396
sS'purchasing'
p5003
I3785
sS'canyon'
p5004
I5154
sS'clown'
p5005
I1012
sS'loses'
p5006
I1832
sS'garage'
p5007
I565
sS'badminton'
p5008
I5155
sS'unique'
p5009
I4394
sS'lose'
p5010
I825
sS'become'
p5011
I826
sS'works'
p5012
I1833
sS'soft'
p5013
I5156
sS'page'
p5014
I1180
sS'replacement'
p5015
I1834
sS'alabama'
p5016
I2397
sS'shed'
p5017
I3084
sS'because'
p5018
I167
sS'shabby'
p5019
I5159
sS'classical'
p5020
I5160
sS'ferris'
p5021
I4946
sS'scared'
p5022
I353
sS'village'
p5023
I4086
sS'thief'
p5024
I2259
sS'library'
p5025
I556
sS'remy'
p5026
I5162
sS'hair'
p5027
I306
sS'pawned'
p5028
I5163
sS'repeat'
p5029
I3300
sS'choosing'
p5030
I2400
sS'home'
p5031
I66
sS'liking'
p5032
I5164
sS'blade'
p5033
I2267
sS'ballot'
p5034
I5166
sS'sammy'
p5035
I4623
sS'pillows'
p5036
I4292
sS'happens'
p5037
I5168
sS'sniffing'
p5038
I4901
sS'ravaged'
p5039
I5170
sS'jeremy'
p5040
I1040
sS'kitties'
p5041
I3301
sS'disbelief'
p5042
I4748
sS'leak'
p5043
I2401
sS'leah'
p5044
I1835
sS'hurricane'
p5045
I1222
sS'paying'
p5046
I4805
sS'constantly'
p5047
I2038
sS'students'
p5048
I1836
sS'does'
p5049
I425
sS'passion'
p5050
I1476
sS'contact'
p5051
I3568
sS'wendy'
p5052
I1223
sS'shredded'
p5053
I3329
sS'ripped'
p5054
I5175
sS'careless'
p5055
I3985
sS'leader'
p5056
I5177
sS'?'
p5057
I827
sS'trout'
p5058
I5178
sS'pepper'
p5059
I5059
sS'noise'
p5060
I527
sS'dui'
p5061
I4587
sS'dangling'
p5062
I5180
sS'majored'
p5063
I3728
sS'stellar'
p5064
I4861
sS'pressure'
p5065
I5183
sS'host'
p5066
I3303
sS'circumstance'
p5067
I5191
sS'trains'
p5068
I5184
sS'although'
p5069
I2404
sS'amy'
p5070
I1419
sS'dogsitting'
p5071
I4588
sS'insults'
p5072
I3304
sS'loans'
p5073
I3082
sS'swept'
p5074
I5185
sS'stage'
p5075
I685
sS'slots'
p5076
I5167
sS'jam'
p5077
I2004
sS'sister'
p5078
I472
sS'rare'
p5079
I2301
sS'justin'
p5080
I403
sS'getting'
p5081
I275
sS'beef'
p5082
I4387
sS'spilled'
p5083
I2408
sS'cleans'
p5084
I5186
sS'chance'
p5085
I5245
sS'francine'
p5086
I1284
sS'rodeo'
p5087
I5187
sS'statement'
p5088
I4437
sS'toppings'
p5089
I5189
sS'sweat'
p5090
I5190
sS'puppies'
p5091
I926
sS'tongue'
p5092
I2409
sS'cameron'
p5093
I4312
sS'swimming'
p5094
I1837
sS'herbs'
p5095
I2872
sS'own'
p5096
I319
sS'bulb'
p5097
I4961
sS'keeps'
p5098
I3453
sS'souvenirs'
p5099
I2265
sS'articulate'
p5100
I5106
sS'screamed'
p5101
I1479
sS'fundraiser'
p5102
I3308
sS'guard'
p5103
I5195
sS'weather'
p5104
I743
sS'tiny'
p5105
I641
sS'female'
p5106
I5196
sS'artists'
p5107
I5197
sS'roads'
p5108
I5198
sS'improved'
p5109
I5199
sS'quickly'
p5110
I528
sS'hang'
p5111
I5200
sS'sheet'
p5112
I3511
sS'bothers'
p5113
I3888
sS'accused'
p5114
I3309
sS'additional'
p5115
I3206
sS'exciting'
p5116
I2410
sS'rushed'
p5117
I686
sS'vegetables'
p5118
I1056
sS'sleepover'
p5119
I3311
sS'noticed'
p5120
I320
sS'overtime'
p5121
I3312
sS'accountant'
p5122
I5204
sS'frustration'
p5123
I1480
sS'notices'
p5124
I2336
sS'maze'
p5125
I5205
sS'dolphins'
p5126
I3773
sS'ford'
p5127
I4379
sS'chunk'
p5128
I5207
sS'peppers'
p5129
I4597
sS'bagged'
p5130
I5208
sS'yellow'
p5131
I2430
sS'buy'
p5132
I82
sS'browsing'
p5133
I4334
sS'tina'
p5134
I3315
sS'shane'
p5135
I529
sS'bus'
p5136
I687
sS'brand'
p5137
I3316
sS'gastric'
p5138
I2411
sS'but'
p5139
I42
sS'volume'
p5140
I5210
sS'landscaping'
p5141
I1839
sS'construction'
p5142
I3317
sS'bun'
p5143
I3318
sS'goals'
p5144
I5211
sS'technician'
p5145
I2412
sS'helpful'
p5146
I4773
sS'highest'
p5147
I1840
sS'memphis'
p5148
I5214
sS'eat'
p5149
I191
sS'he'
p5150
I9
sS'embargo'
p5151
I3613
sS'saxophone'
p5152
I2894
sS'made'
p5153
I112
sS'tossed'
p5154
I5217
sS'places'
p5155
I1481
sS'campus'
p5156
I2385
sS'dangerous'
p5157
I2362
sS'finals'
p5158
I4297
sS'official'
p5159
I5219
sS'smooth'
p5160
I5220
sS'signed'
p5161
I681
sS'excitement'
p5162
I5222
sS'placed'
p5163
I1841
sS'cruel'
p5164
I5223
sS'motorsports'
p5165
I5224
sS'stories'
p5166
I2143
sS'empty'
p5167
I3660
sS'pumped'
p5168
I5226
sS'cake'
p5169
I372
sS'problem'
p5170
I373
sS'piece'
p5171
I829
sS'minutes'
p5172
I566
sS'tricks'
p5173
I3284
sS'skating'
p5174
I1482
sS'diligently'
p5175
I3526
sS'keanu'
p5176
I5229
sS'jenny'
p5177
I2414
sS'horrific'
p5178
I5230
sS'reservations'
p5179
I3267
sS'universal'
p5180
I2415
sS'circus'
p5181
I1843
sS'pie'
p5182
I426
sS'storms'
p5183
I5153
sS'erin'
p5184
I5231
sS'beats'
p5185
I5232
sS'lovebirds'
p5186
I5233
sS'erik'
p5187
I1844
sS'raced'
p5188
I3802
sS'education'
p5189
I3053
sS'pit'
p5190
I2416
sS'eric'
p5191
I1042
sS'deeper'
p5192
I4319
sS'babysits'
p5193
I3123
sS"'ll"
p5194
I3323
sS'spit'
p5195
I5236
sS'ingredients'
p5196
I911
sS'dressed'
p5197
I1845
sS'attacked'
p5198
I3673
sS'boot'
p5199
I3354
sS'forests'
p5200
I4484
sS'40'
p5201
I3324
sS'lately'
p5202
I2417
sS'steering'
p5203
I4925
sS'book'
p5204
I211
sS'sandy'
p5205
I2321
sS'sick'
p5206
I830
sS'interviews'
p5207
I5238
sS'skies'
p5208
I3062
sS'chatted'
p5209
I4600
sS'dresses'
p5210
I5241
sS'dresser'
p5211
I3327
sS'lance'
p5212
I1483
sS'exclamation'
p5213
I4180
sS'junk'
p5214
I5243
sS'frisbee'
p5215
I1847
sS'star'
p5216
I927
sS'respected'
p5217
I3328
sS'monday'
p5218
I1451
sS'mturk'
p5219
I2436
sS'gumbo'
p5220
I5074
sS'june'
p5221
I1224
sS'matt'
p5222
I1484
sS'stay'
p5223
I1485
sS'refreshments'
p5224
I5244
sS'america'
p5225
I3772
sS'indycar'
p5226
I3181
sS'log'
p5227
I4261
sS'masterpiece'
p5228
I3508
sS'stan'
p5229
I1848
sS'toasts'
p5230
I5201
sS'privileges'
p5231
I5247
sS'friends'
p5232
I63
sS'gamers'
p5233
I2736
sS'ghost'
p5234
I1849
sS'violently'
p5235
I4611
sS'designers'
p5236
I5248
sS'coat'
p5237
I1695
sS'3rd'
p5238
I4039
sS'ranks'
p5239
I1850
sS'hears'
p5240
I4834
sS'colorado'
p5241
I4695
sS'bakes'
p5242
I4555
sS'bc'
p5243
I5251
sS'lasted'
p5244
I3330
sS'floored'
p5245
I4329
sS'jenkins'
p5246
I4481
sS'portion'
p5247
I5253
sS'lift'
p5248
I3331
sS'compete'
p5249
I5239
sS'diagnosis'
p5250
I3332
sS'searched'
p5251
I831
sS'understand'
p5252
I1226
sS'yell'
p5253
I2419
sS'cookbook'
p5254
I5255
sS'baked'
p5255
I1851
sS'disruptive'
p5256
I4603
s.