(dp0
S'stock'
p1
I3921
sS'raining'
p2
I1396
sS'acttesting'
p3
I2069
sS'theboyandhisboat'
p4
I4307
sS'yellow'
p5
I1398
sS'four'
p6
I1046
sS"jen'sandkate'ssleepover"
p7
I2070
sS'woods'
p8
I507
sS'sleep'
p9
I187
sS'asian'
p10
I1993
sS'railing'
p11
I2072
sS'suzana'
p12
I2073
sS'captain'
p13
I2074
sS'saved'
p14
I1047
sS'chili'
p15
I2075
sS'marching'
p16
I2076
sS'buddy'
p17
I2078
sS'swam'
p18
I682
sS"theconsequencesoftrisha'scarelessness"
p19
I2080
sS'stinky'
p20
I1399
sS'swan'
p21
I2081
sS'themodel'
p22
I2082
sS'bike'
p23
I224
sS'lori'
p24
I810
sS'voted'
p25
I2083
sS'under'
p26
I508
sS'markplaysfrisbee'
p27
I2084
sS'teaching'
p28
I1400
sS'sorry'
p29
I2085
sS'worth'
p30
I817
sS'theleak'
p31
I2088
sS'amadwife'
p32
I2089
sS'callie'
p33
I2090
sS'blanket'
p34
I1401
sS'thecraft'
p35
I2091
sS'vase'
p36
I820
sS'every'
p37
I126
sS'jack'
p38
I511
sS'thenewtoy'
p39
I2093
sS'kick'
p40
I2094
sS'screaming'
p41
I2095
sS'monkeys'
p42
I2096
sS'breakingmyleg'
p43
I2097
sS'tickets'
p44
I2098
sS'school'
p45
I89
sS'theaffair'
p46
I2100
sS'baking'
p47
I2101
sS'prize'
p48
I2102
sS'ontime'
p49
I2103
sS'skills'
p50
I456
sS'ovation'
p51
I2104
sS'nicktakeshisgirlfriendouttodinner'
p52
I2105
sS'venue'
p53
I2106
sS'convenience'
p54
I1049
sS'nursery'
p55
I2107
sS'math'
p56
I1185
sS'theredcoat'
p57
I3613
sS'commented'
p58
I1403
sS'clothes'
p59
I592
sS'enjoy'
p60
I811
sS'chew'
p61
I1468
sS'tired'
p62
I117
sS'bacon'
p63
I1050
sS'shut'
p64
I1962
sS'batch'
p65
I1404
sS'nail'
p66
I1405
sS'youtube'
p67
I3798
sS'street'
p68
I374
sS'collegeadmission'
p69
I2112
sS'lacy'
p70
I3229
sS'writing'
p71
I3360
sS'scraped'
p72
I2116
sS'jessica'
p73
I1011
sS'even'
p74
I828
sS'summerrain'
p75
I3230
sS'hide'
p76
I813
sS'christ'
p77
I2118
sS'dinnerwithcoworkers'
p78
I3810
sS'wreck'
p79
I2119
sS'areyoukiddingme'
p80
I2120
sS'ned'
p81
I2121
sS'cooking'
p82
I680
sS'orchestra'
p83
I1406
sS'near'
p84
I1525
sS'poison'
p85
I2122
sS'lights'
p86
I593
sS'selena'
p87
I4152
sS'retrieved'
p88
I2123
sS'zoomed'
p89
I2124
sS'new'
p90
I39
sS'net'
p91
I1866
sS'improperly'
p92
I2126
sS'ever'
p93
I2127
sS'disney'
p94
I1407
sS'told'
p95
I105
sS'crunch'
p96
I2128
sS'meg'
p97
I2129
sS'felicia'
p98
I2130
sS'reporter'
p99
I2131
sS'mel'
p100
I1408
sS'never'
p101
I169
sS'stared'
p102
I1409
sS'here'
p103
I2132
sS'met'
p104
I413
sS'studio'
p105
I2133
sS'rickygetstired'
p106
I2134
sS'active'
p107
I1410
sS'100'
p108
I1520
sS'dry'
p109
I2136
sS'kids'
p110
I115
sS'daughter'
p111
I1051
sS'auction'
p112
I2137
sS'items'
p113
I1412
sS'study'
p114
I681
sS'changed'
p115
I594
sS'jail'
p116
I2797
sS'adopt'
p117
I2138
sS'credit'
p118
I466
sS'jogging'
p119
I2139
sS"girl'snight"
p120
I3788
sS'menu'
p121
I2374
sS'cindy'
p122
I1100
sS'military'
p123
I2141
sS'apart'
p124
I2547
sS'chloegetsahaircut'
p125
I2142
sS"larry'snightmare"
p126
I2143
sS'joshua'
p127
I2144
sS'besides'
p128
I2145
sS'campaign'
p129
I683
sS'thepuppies'
p130
I2146
sS'straw'
p131
I1414
sS'spooky'
p132
I2147
sS'julie'
p133
I1415
sS'julia'
p134
I1416
sS'feelings'
p135
I2148
sS'brought'
p136
I375
sS'thenurse'
p137
I2157
sS"sarah'slittlesucculents"
p138
I2150
sS'diabetes'
p139
I4222
sS'sprinted'
p140
I2152
sS'birthdaybeachtrip'
p141
I2153
sS'unit'
p142
I2154
sS'sarah'
p143
I340
sS'charge'
p144
I1417
sS'spoke'
p145
I2155
sS'would'
p146
I52
sS'army'
p147
I1418
sS'<s>'
p148
I2
sS'hospital'
p149
I177
sS'watering'
p150
I414
sS'arms'
p151
I2158
sS'exited'
p152
I2159
sS'call'
p153
I608
sS'calm'
p154
I2160
sS'strike'
p155
I2161
sS'grahams'
p156
I2162
sS'ora'
p157
I2163
sS'type'
p158
I709
sS'until'
p159
I1326
sS'dinnertime'
p160
I3235
sS'separated'
p161
I1419
sS'meowed'
p162
I1420
sS'dumped'
p163
I2481
sS'paperwork'
p164
I2165
sS'relax'
p165
I815
sS'successful'
p166
I263
sS'oscar'
p167
I1422
sS'hurt'
p168
I2167
sS'phone'
p169
I298
sS'warm'
p170
I1052
sS'adult'
p171
I1424
sS'prescription'
p172
I1847
sS'changeofplans'
p173
I2169
sS'90'
p174
I2170
sS'hole'
p175
I685
sS'hold'
p176
I686
sS'bestmanneeded'
p177
I2171
sS'blocking'
p178
I2172
sS'spiraled'
p179
I2219
sS'must'
p180
I1425
sS'me'
p181
I225
sS'scooterinjury'
p182
I2173
sS'join'
p183
I1053
sS'wore'
p184
I816
sS'jess'
p185
I1710
sS'myhumanlovesme'
p186
I2174
sS'work'
p187
I56
sS'roof'
p188
I1426
sS'regrets'
p189
I2086
sS'movies'
p190
I376
sS'mechanic'
p191
I2175
sS'henry'
p192
I2176
sS'gossiping'
p193
I2710
sS'jamal'
p194
I2177
sS'my'
p195
I53
sS'route'
p196
I1427
sS'cone'
p197
I2178
sS'mileschewsgum'
p198
I2179
sS'myprettypony'
p199
I2396
sS'give'
p200
I509
sS'bakingacake'
p201
I2182
sS'india'
p202
I2183
sS'dragons'
p203
I2185
sS'honey'
p204
I1055
sS'foods'
p205
I1056
sS'atripinthewoods'
p206
I2186
sS'thewhale'
p207
I2187
sS'want'
p208
I243
sS'violin'
p209
I2188
sS'fearofdogs'
p210
I2189
sS'times'
p211
I885
sS'worse'
p212
I2190
sS'poorly'
p213
I2191
sS'end'
p214
I457
sS'recovery'
p215
I2192
sS'turn'
p216
I1429
sS'travel'
p217
I687
sS'song'
p218
I1224
sS'redecorated'
p219
I3695
sS'machine'
p220
I818
sS'how'
p221
I118
sS'hot'
p222
I2046
sS"robert'sadventure"
p223
I2195
sS'answer'
p224
I639
sS'gate'
p225
I1431
sS'hi'
p226
I4318
sS'beach'
p227
I226
sS'charging'
p228
I2196
sS'marinara'
p229
I2608
sS'pizza'
p230
I299
sS'raffle'
p231
I2197
sS'gaming'
p232
I819
sS'achampionshipswim'
p233
I2198
sS'honored'
p234
I2199
sS'briefcase'
p235
I1432
sS'backtoschoolshopping'
p236
I2200
sS'mess'
p237
I1433
sS'after'
p238
I80
sS'lab'
p239
I1434
sS'wrong'
p240
I475
sS'jumping'
p241
I2201
sS'lay'
p242
I2202
sS'popquiz'
p243
I3859
sS'president'
p244
I1436
sS'law'
p245
I1655
sS'lap'
p246
I2204
sS'bushes'
p247
I2205
sS'types'
p248
I1437
sS'purchase'
p249
I510
sS'danny'
p250
I2206
sS'third'
p251
I1438
sS'wins'
p252
I2207
sS'lost'
p253
I205
sS'sliced'
p254
I2209
sS'harley'
p255
I2210
sS'janie'
p256
I2211
sS'cigarettes'
p257
I1439
sS'18th'
p258
I1440
sS'green'
p259
I2212
sS'frequent'
p260
I2213
sS'goodbye'
p261
I1441
sS'enter'
p262
I1443
sS'plumbing'
p263
I1666
sS'doorhandledisaster'
p264
I2216
sS'operate'
p265
I2217
sS'order'
p266
I1608
sS'wind'
p267
I688
sS'wine'
p268
I1672
sS'exotic'
p269
I1760
sS'salon'
p270
I1442
sS'office'
p271
I415
sS'dreamed'
p272
I822
sS'over'
p273
I90
sS'fall'
p274
I1759
sS'pound'
p275
I2220
sS'satisfied'
p276
I1444
sS'jerry'
p277
I1445
sS'babyshower'
p278
I2221
sS'oven'
p279
I1057
sS'keyboard'
p280
I2223
sS'thegame'
p281
I2224
sS'mayor'
p282
I2225
sS'clapped'
p283
I2226
sS'before'
p284
I315
sS'scoring'
p285
I2227
sS'fit'
p286
I1446
sS'somewhere'
p287
I2229
sS'fix'
p288
I689
sS'swapped'
p289
I4020
sS'tomseescomedy'
p290
I2230
sS','
p291
I12
sS'denver'
p292
I2231
sS'crew'
p293
I2232
sS'destroyed'
p294
I747
sS'gobbled'
p295
I2233
sS'thebeach'
p296
I2234
sS'stifling'
p297
I2235
sS'weeks'
p298
I512
sS'promapproach'
p299
I2236
sS'easier'
p300
I2237
sS'overcome'
p301
I2238
sS'theo'
p302
I1448
sS'then'
p303
I122
sS'them'
p304
I40
sS'woken'
p305
I2239
sS'weatherproblems'
p306
I2240
sS'moviedate'
p307
I3044
sS'safe'
p308
I823
sS'smellymonday'
p309
I2242
sS'break'
p310
I1058
sS'band'
p311
I691
sS'roommate'
p312
I1449
sS'drinking'
p313
I1450
sS'nightclubdrama'
p314
I2243
sS'they'
p315
I19
sS'schools'
p316
I2244
sS'killed'
p317
I2245
sS'stolengameboy'
p318
I2246
sS'sixteen'
p319
I2247
sS'silver'
p320
I2248
sS'bank'
p321
I595
sS'bread'
p322
I1059
sS'alex'
p323
I2249
sS'meat'
p324
I1451
sS'oxygen'
p325
I2250
sS'wheniranaway'
p326
I2251
sS"charlie'sbrokenleg"
p327
I2252
sS'lucy'
p328
I2253
sS'grows'
p329
I2254
sS'lucasreadsthenews'
p330
I2310
sS'filling'
p331
I692
sS'reasonable'
p332
I1452
sS'each'
p333
I245
sS'went'
p334
I26
sS'spiders'
p335
I2071
sS'meal'
p336
I300
sS'carlos'
p337
I1060
sS'luck'
p338
I1061
sS'nastyoccurrence'
p339
I4022
sS'fee'
p340
I3874
sS'financial'
p341
I2256
sS'diana'
p342
I2257
sS'series'
p343
I2258
sS'diane'
p344
I2259
sS'spider'
p345
I1207
sS'sled'
p346
I2260
sS'tip'
p347
I1454
sS'taught'
p348
I1455
sS'forgot'
p349
I632
sS'knitting'
p350
I3630
sS'saturday'
p351
I1456
sS'won'
p352
I211
sS'driving'
p353
I196
sS'sang'
p354
I2266
sS'motel'
p355
I2267
sS'washed'
p356
I1457
sS'sparkly'
p357
I2268
sS'george'
p358
I2269
sS'beaniebabies'
p359
I2270
sS're'
p360
I1458
sS'laid'
p361
I1459
sS'daniel'
p362
I1460
sS'bonnets'
p363
I2077
sS'medicine'
p364
I2272
sS'got'
p365
I47
sS'washer'
p366
I1063
sS'billhastrouble'
p367
I2273
sS'splashed'
p368
I2274
sS'turning'
p369
I301
sS'assured'
p370
I2275
sS'tasha'
p371
I1461
sS'leftovers'
p372
I2276
sS"karen'strip"
p373
I2277
sS'given'
p374
I2873
sS'free'
p375
I1462
sS'fred'
p376
I1065
sS'kayla'
p377
I1066
sS'elle'
p378
I3244
sS"lisa'srestaurant"
p379
I2279
sS'sheet'
p380
I2874
sS'wanted'
p381
I63
sS'heat'
p382
I2281
sS'catwantstobelong'
p383
I2282
sS'aisle'
p384
I2283
sS'ate'
p385
I141
sS'thebuckeyes'
p386
I2284
sS'created'
p387
I2285
sS'starts'
p388
I1464
sS'messages'
p389
I824
sS'days'
p390
I1067
sS'scrounge'
p391
I2286
sS'weightloss'
p392
I2287
sS'shelved'
p393
I2288
sS'bears'
p394
I2289
sS'itoldyouso'
p395
I2290
sS'isn'
p396
I1465
sS'arrived'
p397
I363
sS'loud'
p398
I460
sS'bite'
p399
I1466
sS'rang'
p400
I693
sS'already'
p401
I1054
sS'icecreamday'
p402
I2293
sS'jamaica'
p403
I2110
sS'grade'
p404
I1469
sS'chased'
p405
I4027
sS'hearing'
p406
I694
sS'shopped'
p407
I2295
sS'wash'
p408
I2296
sS'spinning'
p409
I2297
sS'newfoods'
p410
I2298
sS'delicious'
p411
I377
sS'wasn'
p412
I2299
sS'rats'
p413
I2300
sS'thick'
p414
I2301
sS'tuna'
p415
I2302
sS'researched'
p416
I1008
sS'toy'
p417
I461
sS'apgar'
p418
I3260
sS'service'
p419
I513
sS"jackie'scookies"
p420
I2304
sS'top'
p421
I302
sS'girls'
p422
I825
sS'heights'
p423
I2306
sS'needed'
p424
I178
sS'compromise'
p425
I1068
sS'too'
p426
I131
sS'tom'
p427
I77
sS'john'
p428
I197
sS'dogs'
p429
I1473
sS'tod'
p430
I2307
sS'listen'
p431
I1474
sS'curtains'
p432
I2308
sS'ceiling'
p433
I1475
sS'thelamb'
p434
I4031
sS'happily'
p435
I462
sS'gym'
p436
I596
sS'brushes'
p437
I2309
sS'albert'
p438
I1477
sS'took'
p439
I84
sS'japanese'
p440
I2111
sS'newfriends'
p441
I2311
sS'cereal'
p442
I955
sS'helen'
p443
I2312
sS'wasted'
p444
I1069
sS'practiced'
p445
I463
sS'brushed'
p446
I2313
sS'theinterview'
p447
I2314
sS'huntingtrip'
p448
I2315
sS'begins'
p449
I2316
sS'anxiety'
p450
I2317
sS'slidingintosecond'
p451
I2318
sS'showed'
p452
I826
sS'hike'
p453
I1070
sS'bloated'
p454
I1479
sS'crosses'
p455
I3889
sS'tree'
p456
I198
sS'mouth'
p457
I3728
sS'ihop'
p458
I2271
sS'shower'
p459
I695
sS'thepoll'
p460
I3677
sS'classes'
p461
I696
sS'silly'
p462
I1071
sS'iron'
p463
I2321
sS'tackled'
p464
I3572
sS'feeling'
p465
I597
sS'fashion'
p466
I1481
sS'sees'
p467
I2322
sS'ran'
p468
I188
sS'boston'
p469
I1072
sS'10th'
p470
I3573
sS'mind'
p471
I1287
sS'mine'
p472
I1275
sS'anybody'
p473
I1867
sS'talking'
p474
I514
sS'rat'
p475
I1482
sS'lunchtime'
p476
I2325
sS'johnburnsthebiscuits'
p477
I2326
sS'seen'
p478
I2327
sS'picks'
p479
I3648
sS'mint'
p480
I2329
sS'tells'
p481
I1290
sS'alive'
p482
I2330
sS'dozen'
p483
I2331
sS'forced'
p484
I1073
sS'abroad'
p485
I2332
sS'strength'
p486
I1074
sS'necktie'
p487
I2333
sS'concrete'
p488
I2334
sS'thoroughly'
p489
I2335
sS'cope'
p490
I2336
sS'-'
p491
I170
sS'snow'
p492
I827
sS'brandon'
p493
I697
sS'sound'
p494
I598
sS'chest'
p495
I2338
sS'causing'
p496
I974
sS'chess'
p497
I1075
sS'thecompromise'
p498
I2340
sS'laughed'
p499
I1484
sS'yucky'
p500
I2341
sS'cookout'
p501
I2342
sS'blue'
p502
I2117
sS'exactly'
p503
I4039
sS'susie'
p504
I1076
sS'committing'
p505
I2343
sS'though'
p506
I1485
sS'thrilled'
p507
I317
sS'outcome'
p508
I2895
sS'sue'
p509
I829
sS'thepolygraph'
p510
I2344
sS'audition'
p511
I599
sS'regular'
p512
I1486
sS'germany'
p513
I1487
sS'letter'
p514
I698
sS'exercises'
p515
I1488
sS'drought'
p516
I2345
sS'coin'
p517
I1489
sS'jean'
p518
I1535
sS'maria'
p519
I515
sS'singer'
p520
I2347
sS'opheliaknitsasweater'
p521
I2510
sS'don'
p522
I2349
sS'sparechange'
p523
I2350
sS'alarm'
p524
I1077
sS'camp'
p525
I1490
sS'dog'
p526
I70
sS'musical'
p527
I1536
sS'definitely'
p528
I1491
sS'tech'
p529
I2351
sS'embarrassingmoment'
p530
I2352
sS'aced'
p531
I4184
sS'breathed'
p532
I2353
sS'thethief'
p533
I2354
sS'responded'
p534
I2356
sS'came'
p535
I162
sS'selected'
p536
I2358
sS'bait'
p537
I2359
sS'contacted'
p538
I2360
sS'hunger'
p539
I1492
sS'queen'
p540
I1493
sS'teresa'
p541
I2362
sS'bonnie'
p542
I2363
sS'pops'
p543
I1494
sS'incense'
p544
I4201
sS'colors'
p545
I830
sS'radio'
p546
I699
sS'stepping'
p547
I2365
sS'participate'
p548
I2366
sS'nephew'
p549
I2367
sS'buttons'
p550
I3690
sS'enjoyed'
p551
I189
sS"timandkatie'striptoscoops"
p552
I2369
sS'sharks'
p553
I1495
sS'witnesses'
p554
I2370
sS'judges'
p555
I2371
sS'busy'
p556
I1496
sS'clicked'
p557
I2372
sS'proposed'
p558
I1585
sS'cousins'
p559
I1522
sS'weekends'
p560
I1497
sS'symphonic'
p561
I2375
sS'paradefloat'
p562
I2377
sS'bush'
p563
I2378
sS'touched'
p564
I1498
sS'rich'
p565
I831
sS'pursuing'
p566
I2379
sS'folder'
p567
I2381
sS'rice'
p568
I1499
sS'sells'
p569
I2488
sS'rica'
p570
I2382
sS'wearing'
p571
I516
sS'do'
p572
I119
sS'kidneybeans'
p573
I2383
sS'dj'
p574
I2384
sS'thecriminal'
p575
I2385
sS'colorful'
p576
I2386
sS'conduct'
p577
I2388
sS'stop'
p578
I220
sS'newjob'
p579
I2389
sS'coast'
p580
I2390
sS'francinepaintshernails'
p581
I2391
sS'haunted'
p582
I1340
sS'thefall'
p583
I4225
sS'wedding'
p584
I968
sS'report'
p585
I600
sS'triptothedentist'
p586
I2263
sS'nasty'
p587
I2393
sS'undressed'
p588
I2394
sS'nurse'
p589
I832
sS'sandy'
p590
I4347
sS'runs'
p591
I1346
sS'bar'
p592
I1504
sS'17'
p593
I1758
sS'noon'
p594
I3112
sS'nicely'
p595
I1505
sS"erik'saddiction"
p596
I2397
sS'licking'
p597
I2398
sS'flipped'
p598
I1507
sS'bag'
p599
I700
sS'bad'
p600
I318
sS'frustration'
p601
I4312
sS'piggy'
p602
I1508
sS'shots'
p603
I2399
sS'larrybuysahat'
p604
I2400
sS'steak'
p605
I1080
sS'steal'
p606
I833
sS'playstation'
p607
I2401
sS'blew'
p608
I1081
sS'decides'
p609
I416
sS'fair'
p610
I1082
sS'oscargoesforarun'
p611
I2402
sS'roberto'
p612
I4046
sS'applauded'
p613
I2404
sS'testing'
p614
I2405
sS'roadmap'
p615
I2406
sS'thefight'
p616
I2407
sS'decided'
p617
I24
sS'infinitejestfootnotes'
p618
I2408
sS'result'
p619
I834
sS'fail'
p620
I2410
sS'miserable'
p621
I1973
sS'noodles'
p622
I1357
sS'hammer'
p623
I2413
sS'best'
p624
I137
sS'subject'
p625
I1510
sS'pete'
p626
I2414
sS'said'
p627
I107
sS'temptation'
p628
I2415
sS'lots'
p629
I1083
sS'dishonesty'
p630
I3658
sS'away'
p631
I207
sS'shaved'
p632
I2416
sS'grandmother'
p633
I791
sS'mud'
p634
I2418
sS'mug'
p635
I2419
sS'score'
p636
I464
sS'olympics'
p637
I1084
sS'melissa'
p638
I1085
sS'pets'
p639
I4108
sS'sorts'
p640
I1079
sS'approach'
p641
I1511
sS'360'
p642
I2422
sS'theswan'
p643
I3133
sS'discipline'
p644
I1871
sS'we'
p645
I66
sS'handles'
p646
I3745
sS'specialty'
p647
I2424
sS'nature'
p648
I1512
sS'rolled'
p649
I836
sS'fruits'
p650
I2425
sS'however'
p651
I417
sS'boss'
p652
I179
sS'nightmares'
p653
I1086
sS'retirement'
p654
I2426
sS'wear'
p655
I837
sS'cousin'
p656
I1087
sS'picking'
p657
I2427
sS'weddingmusician'
p658
I2428
sS'kitchen'
p659
I701
sS'suggested'
p660
I2429
sS'received'
p661
I1513
sS'accident'
p662
I1371
sS'cot'
p663
I2431
sS'meredith'
p664
I1514
sS'country'
p665
I465
sS'ill'
p666
I1515
sS'jelly'
p667
I2432
sS'against'
p668
I838
sS'amazing'
p669
I2814
sS'layered'
p670
I2433
sS'games'
p671
I279
sS'planned'
p672
I1088
sS'tentliving'
p673
I2434
sS'brad'
p674
I702
sS'argue'
p675
I2436
sS'asked'
p676
I155
sS'gushed'
p677
I2437
sS'crashcrash'
p678
I2228
sS'skill'
p679
I4239
sS'tough'
p680
I2438
sS'newcareer'
p681
I2439
sS'had'
p682
I16
sS'chefkira'
p683
I2440
sS'height'
p684
I2441
sS'karen'
p685
I1518
sS'paused'
p686
I2766
sS'tony'
p687
I1519
sS'blonde'
p688
I2442
sS'thesnake'
p689
I2443
sS'bradgetsadate'
p690
I4352
sS'walkingatnight'
p691
I2135
sS'francistiesatie'
p692
I2444
sS'conference'
p693
I2445
sS'putt'
p694
I2446
sS'bathroom'
p695
I419
sS'petty'
p696
I2447
sS'angel'
p697
I2448
sS'puts'
p698
I1521
sS'eager'
p699
I379
sS'union'
p700
I839
sS'thekingsdefeat'
p701
I4011
sS'three'
p702
I1089
sS'been'
p703
I83
sS'.'
p704
I4
sS'confident'
p705
I1090
sS'beer'
p706
I2450
sS'much'
p707
I156
sS'stadium'
p708
I1091
sS'expected'
p709
I2451
sS'entered'
p710
I2452
sS'lovely'
p711
I840
sS'warmth'
p712
I2453
sS'threw'
p713
I601
sS'website'
p714
I2454
sS'life'
p715
I319
sS'thenewhappiness'
p716
I2455
sS"roberto'sjobsearch"
p717
I2456
sS'relaxing'
p718
I2457
sS'attacked'
p719
I3178
sS'drugs'
p720
I2435
sS'accidently'
p721
I2460
sS'streetvendor'
p722
I2461
sS'worker'
p723
I1523
sS'ariana'
p724
I2462
sS'newstore'
p725
I4058
sS'dota'
p726
I2464
sS'talentcontest'
p727
I2465
sS'thefrenemy'
p728
I2466
sS'lawngettingmowed'
p729
I2467
sS'child'
p730
I1092
sS'catch'
p731
I264
sS'worked'
p732
I246
sS'lionel'
p733
I2468
sS'applied'
p734
I841
sS'ant'
p735
I2899
sS'save'
p736
I1105
sS'tank'
p737
I1094
sS'prestigious'
p738
I2900
sS'pokemonhunters'
p739
I2471
sS'professionally'
p740
I2472
sS'air'
p741
I703
sS'remi'
p742
I1524
sS'evening'
p743
I1313
sS'melted'
p744
I2473
sS'teachers'
p745
I1526
sS'applies'
p746
I2474
sS'aid'
p747
I2476
sS'voice'
p748
I602
sS'flooding'
p749
I1095
sS'leaves'
p750
I842
sS'launched'
p751
I2477
sS'mistake'
p752
I420
sS'videogameswithmyfriends'
p753
I2478
sS'seven'
p754
I2479
sS'climbed'
p755
I2480
sS'played'
p756
I247
sS'is'
p757
I51
sS'sushi'
p758
I1421
sS'it'
p759
I14
sS'tease'
p760
I1527
sS'traffictroubles'
p761
I2482
sS'player'
p762
I342
sS'continues'
p763
I2484
sS'eighteen'
p764
I1528
sS'brake'
p765
I1529
sS'cans'
p766
I603
sS'jest'
p767
I1530
sS'in'
p768
I21
sS'conditioner'
p769
I1097
sS'thetalkshow'
p770
I2486
sS'mouse'
p771
I2487
sS'id'
p772
I1430
sS'if'
p773
I208
sS'grown'
p774
I843
sS'bottles'
p775
I2489
sS'thebestman'
p776
I2986
sS'perform'
p777
I1531
sS'things'
p778
I467
sS'make'
p779
I68
sS'wound'
p780
I1532
sS'amount'
p781
I1098
sS'forehead'
p782
I2490
sS'clint'
p783
I3646
sS'belly'
p784
I704
sS'dvds'
p785
I2492
sS'avoids'
p786
I2493
sS'several'
p787
I2494
sS"melody'striptotheaquarium"
p788
I3694
sS'toasted'
p789
I1533
sS'stevelearnstocope'
p790
I2495
sS'wheel'
p791
I1099
sS'moose'
p792
I1453
sS'doorbell'
p793
I3671
sS'smoke'
p794
I2140
sS'nic'
p795
I2498
sS'ella'
p796
I2499
sS'hang'
p797
I2500
sS'clung'
p798
I2501
sS'rain'
p799
I845
sS'hand'
p800
I1041
sS'delight'
p801
I1534
sS'cathy'
p802
I555
sS'afraid'
p803
I4159
sS'nomorerules'
p804
I2504
sS'kim'
p805
I846
sS'jealous'
p806
I1096
sS'kia'
p807
I248
sS'blamed'
p808
I2505
sS'tune'
p809
I2506
sS'kid'
p810
I517
sS'kept'
p811
I343
sS'lucas'
p812
I2507
sS'charlie'
p813
I705
sS'failing'
p814
I1103
sS'suffering'
p815
I2508
sS'ocean'
p816
I847
sS'client'
p817
I604
sS'mother'
p818
I320
sS'the'
p819
I6
sS'800'
p820
I2348
sS'spencer'
p821
I1078
sS'plaque'
p822
I2512
sS'left'
p823
I605
sS'snowman'
p824
I2513
sS'eyebrows'
p825
I2514
sS'just'
p826
I265
sS'athletic'
p827
I2516
sS'photo'
p828
I518
sS'laptop'
p829
I1104
sS'sleepy'
p830
I606
sS'assigned'
p831
I1537
sS'horatioburnshistongueoncoffee'
p832
I2517
sS'human'
p833
I2518
sS'nedwasbad'
p834
I3300
sS'yet'
p835
I2520
sS'plansruined'
p836
I2522
sS'ham'
p837
I1538
sS'candidate'
p838
I2523
sS'thinking'
p839
I3783
sS'photographer'
p840
I848
sS'ease'
p841
I2525
sS'slices'
p842
I2526
sS'josh'
p843
I418
sS'counted'
p844
I3935
sS'pharmacy'
p845
I2527
sS'johnmakesasandwich'
p846
I2528
sS'thecruise'
p847
I2529
sS'brainstorming'
p848
I2530
sS'board'
p849
I706
sS'prison'
p850
I2531
sS'johnnie'
p851
I3416
sS'contestant'
p852
I2532
sS'has'
p853
I132
sS'hat'
p854
I1539
sS'theghost'
p855
I2533
sS'gave'
p856
I249
sS'maxhasaverygooddog'
p857
I2534
sS'thankfully'
p858
I2535
sS"justin'snewflower"
p859
I2536
sS'vanessa'
p860
I849
sS'newvideogame'
p861
I2537
sS'breaks'
p862
I2538
sS"dog'sbite"
p863
I2539
sS'joanna'
p864
I2540
sS'attractiongonewrong'
p865
I2541
sS'caps'
p866
I2542
sS'boxes'
p867
I2543
sS'jimmyandtimmy'
p868
I2544
sS'linda'
p869
I1603
sS'shadow'
p870
I2545
sS'unique'
p871
I1541
sS'fallingdown'
p872
I4072
sS'dreams'
p873
I1542
sS'stylist'
p874
I1835
sS'county'
p875
I1543
sS'slowlaptop'
p876
I2548
sS'gift'
p877
I2549
sS'bobby'
p878
I421
sS'cooler'
p879
I1544
sS'iguanaandthegreens'
p880
I2551
sS'manual'
p881
I2552
sS'50'
p882
I850
sS'niels'
p883
I2553
sS'xbox'
p884
I851
sS'thecheckersgame'
p885
I2554
sS'informative'
p886
I2555
sS'designing'
p887
I2556
sS'majored'
p888
I2557
sS'bobbywasalmostlate'
p889
I2558
sS'officer'
p890
I852
sS'night'
p891
I227
sS'hung'
p892
I2559
sS'security'
p893
I519
sS'nannyandgrandpa'
p894
I2561
sS'cancelled'
p895
I4238
sS'attorney'
p896
I2563
sS'right'
p897
I1545
sS'dean'
p898
I1110
sS'creek'
p899
I2564
sS'deal'
p900
I266
sS'people'
p901
I344
sS'successfully'
p902
I1106
sS'proudly'
p903
I853
sS'ironically'
p904
I2916
sS'dead'
p905
I520
sS'jennifer'
p906
I2566
sS'born'
p907
I2567
sS'donald'
p908
I2568
sS'myfirstgirlfriend'
p909
I2917
sS'scrabble'
p910
I2569
sS'winds'
p911
I3265
sS'escape'
p912
I1547
sS'forest'
p913
I3917
sS'guess'
p914
I2570
sS'tripped'
p915
I2571
sS'cooper'
p916
I2572
sS'theatre'
p917
I2573
sS'for'
p918
I18
sS'bottom'
p919
I1549
sS'purple'
p920
I1550
sS'anewjob'
p921
I2574
sS'ice'
p922
I424
sS'creative'
p923
I1552
sS'everything'
p924
I1107
sS'rollerderbyteam'
p925
I2575
sS'asking'
p926
I2576
sS'denied'
p927
I2578
sS'christmas'
p928
I345
sS'heartbroken'
p929
I2579
sS'thephone'
p930
I2581
sS'cora'
p931
I1553
sS'energy'
p932
I1554
sS'dunkin'
p933
I2582
sS'xander'
p934
I1606
sS'corn'
p935
I1108
sS'trampoline'
p936
I2705
sS'kickball'
p937
I1555
sS'beautysalon'
p938
I2585
sS'graduated'
p939
I715
sS'ketchuponfries'
p940
I2586
sS'plug'
p941
I2587
sS'breaded'
p942
I2588
sS'diner'
p943
I1557
sS'jenna'
p944
I3249
sS'dollars'
p945
I707
sS'months'
p946
I303
sS'o'
p947
I2589
sS'elephants'
p948
I4306
sS'alligator'
p949
I2156
sS'dinner'
p950
I190
sS'dined'
p951
I2590
sS'afternoon'
p952
I521
sS'beyonceconcert'
p953
I2591
sS'thewaterpark'
p954
I2109
sS'sweater'
p955
I854
sS'bath'
p956
I2593
sS'coins'
p957
I1559
sS'lied'
p958
I2595
sS'bethgoesfishing'
p959
I2596
sS'float'
p960
I1560
sS'delighted'
p961
I468
sS'son'
p962
I173
sS'down'
p963
I213
sS'thankful'
p964
I2597
sS'tomandmelissa'
p965
I2598
sS'thepresent'
p966
I2599
sS'jenn'
p967
I1561
sS'old'
p968
I228
sS'cafeteria'
p969
I2600
sS'frightened'
p970
I1562
sS'parade'
p971
I855
sS'maturelady'
p972
I2601
sS'cleared'
p973
I2602
sS'crowd'
p974
I522
sS'sally'
p975
I607
sS'tennis'
p976
I1563
sS'weakequipment'
p977
I2603
sS'inspected'
p978
I1564
sS'fight'
p979
I1181
sS'avail'
p980
I1565
sS'stuck'
p981
I3581
sS'way'
p982
I120
sS'jane'
p983
I250
sS'music'
p984
I341
sS'was'
p985
I7
sS'war'
p986
I422
sS'happy'
p987
I61
sS'head'
p988
I609
sS'form'
p989
I2604
sS'offer'
p990
I1567
sS'attempted'
p991
I1111
sS'becoming'
p992
I708
sS'fireworks'
p993
I2605
sS'leilani'
p994
I1568
sS'failure'
p995
I1292
sS'melanie'
p996
I1226
sS'needles'
p997
I2609
sS'uncle'
p998
I469
sS'ambitious'
p999
I2278
sS'astonished'
p1000
I2611
sS'placement'
p1001
I4082
sS'removed'
p1002
I1570
sS'true'
p1003
I1571
sS'wood'
p1004
I4185
sS'thesolo'
p1005
I2613
sS'emil'
p1006
I2614
sS"timmy'snewfishtank"
p1007
I2615
sS'sermons'
p1008
I2164
sS'inside'
p1009
I1112
sS'fills'
p1010
I1113
sS'attached'
p1011
I2616
sS'lips'
p1012
I3692
sS'tell'
p1013
I684
sS'crystal'
p1014
I1114
sS'veterinarian'
p1015
I2619
sS'lenny'
p1016
I2923
sS'daddy'
p1017
I1572
sS'average'
p1018
I2924
sS'<unk>'
p1019
I1
sS'horses'
p1020
I2623
sS'phil'
p1021
I561
sS'lately'
p1022
I4344
sS'classic'
p1023
I2624
sS'stronger'
p1024
I1573
sS'mariawaits'
p1025
I2625
sS'tournament'
p1026
I523
sS'cleats'
p1027
I2626
sS'drive'
p1028
I432
sS'sometime'
p1029
I2560
sS'worklunch'
p1030
I2628
sS'promised'
p1031
I1115
sS'fashioned'
p1032
I2629
sS'accounting'
p1033
I2630
sS'ship'
p1034
I2631
sS'mrs'
p1035
I1671
sS'check'
p1036
I423
sS'pipe'
p1037
I2632
sS'vista'
p1038
I2633
sS'skipandmarygoaround'
p1039
I2634
sS'faithful'
p1040
I2635
sS'thepizzaparty'
p1041
I2636
sS'floor'
p1042
I610
sS'agreeing'
p1043
I2637
sS'when'
p1044
I37
sS'danrunsamarathon'
p1045
I4085
sS'handed'
p1046
I1575
sS'tim'
p1047
I108
sS'setting'
p1048
I2639
sS'terribletest'
p1049
I2640
sS'holding'
p1050
I1509
sS'brings'
p1051
I2264
sS'test'
p1052
I157
sS'tie'
p1053
I1576
sS'troubleinschool'
p1054
I3697
sS'smell'
p1055
I1116
sS'roll'
p1056
I1577
sS'scored'
p1057
I1578
sS'picture'
p1058
I524
sS"'s"
p1059
I1579
sS'brothers'
p1060
I2643
sS'toad'
p1061
I2644
sS'why'
p1062
I579
sS'felt'
p1063
I180
sS'stealing'
p1064
I2645
sS'update'
p1065
I2646
sS"ryan'sriddle"
p1066
I2647
sS'fell'
p1067
I229
sS"grassisn'talwaysgreener"
p1068
I2648
sS'maureen'
p1069
I1581
sS'professional'
p1070
I2928
sS'enjoyable'
p1071
I2847
sS'pizzas'
p1072
I2649
sS'weekend'
p1073
I856
sS'died'
p1074
I1582
sS'babysitting'
p1075
I1583
sS'jones'
p1076
I2650
sS'francine'
p1077
I4292
sS'longer'
p1078
I611
sS'customerservice'
p1079
I2651
sS'thevacationhouse'
p1080
I4288
sS'guitarlessons'
p1081
I1584
sS'landed'
p1082
I2653
sS'daily'
p1083
I728
sS'jacket'
p1084
I1586
sS'damion'
p1085
I2654
sS'time'
p1086
I32
sS'serious'
p1087
I1117
sS'mydisneybag'
p1088
I4090
sS'babysteps'
p1089
I2655
sS'stacks'
p1090
I2656
sS'paced'
p1091
I2657
sS'songs'
p1092
I1587
sS'neighbors'
p1093
I612
sS'detective'
p1094
I2930
sS'coach'
p1095
I1118
sS'managed'
p1096
I280
sS'lemons'
p1097
I2265
sS'regulars'
p1098
I2659
sS'dance'
p1099
I857
sS'skip'
p1100
I1119
sS'rob'
p1101
I1588
sS'excellent'
p1102
I2168
sS'hawaii'
p1103
I1120
sS'laura'
p1104
I711
sS'yapping'
p1105
I2660
sS'manager'
p1106
I380
sS'mile'
p1107
I2661
sS'marion'
p1108
I1589
sS'microwave'
p1109
I1551
sS'grateful'
p1110
I381
sS'skiing'
p1111
I2662
sS'battle'
p1112
I2663
sS'milo'
p1113
I1590
sS'chair'
p1114
I2664
sS'milk'
p1115
I858
sS'vet'
p1116
I1591
sS'disorders'
p1117
I2665
sS'flash'
p1118
I1592
sS'father'
p1119
I181
sS'prom'
p1120
I1121
sS'answered'
p1121
I1593
sS'finally'
p1122
I78
sS'praised'
p1123
I2666
sS'missedthepoint'
p1124
I2667
sS'rebecca'
p1125
I2668
sS'shoot'
p1126
I2669
sS'smartphone'
p1127
I1594
sS'ticking'
p1128
I3707
sS'thegenius'
p1129
I2671
sS'hannah'
p1130
I2672
sS'recipe'
p1131
I1595
sS'confidence'
p1132
I3743
sS'brownie'
p1133
I859
sS'choice'
p1134
I557
sS'congregation'
p1135
I2675
sS'vegas'
p1136
I1596
sS'atwork'
p1137
I2395
sS'tanks'
p1138
I2676
sS'kitten'
p1139
I382
sS'cook'
p1140
I525
sS'word'
p1141
I1883
sS'trouble'
p1142
I712
sS'eats'
p1143
I2678
sS'minute'
p1144
I860
sS'cool'
p1145
I641
sS'signal'
p1146
I3678
sS'did'
p1147
I127
sS'turns'
p1148
I613
sS'goingtochurch'
p1149
I3893
sS'1996'
p1150
I2681
sS'ollie'
p1151
I2682
sS'brother'
p1152
I470
sS'gum'
p1153
I861
sS'forgets'
p1154
I2683
sS'leave'
p1155
I1256
sS'item'
p1156
I1123
sS'settle'
p1157
I1597
sS'miathemodel'
p1158
I2685
sS'subway'
p1159
I2686
sS'team'
p1160
I129
sS'quick'
p1161
I713
sS'guy'
p1162
I1598
sS'added'
p1163
I1599
sS'prevent'
p1164
I2687
sS'olympic'
p1165
I2688
sS'talked'
p1166
I753
sS'says'
p1167
I1600
sS'regret'
p1168
I2690
sS'thelake'
p1169
I2691
sS'attic'
p1170
I1601
sS'sigh'
p1171
I2692
sS'discover'
p1172
I1602
sS'sign'
p1173
I862
sS'thefrog'
p1174
I2693
sS'colin'
p1175
I2694
sS'cost'
p1176
I863
sS'cheapjacket'
p1177
I2695
sS'trisha'
p1178
I1604
sS'davidwantsanewbike'
p1179
I2696
sS'run'
p1180
I321
sS'bake'
p1181
I1124
sS'birdhouse'
p1182
I4303
sS'irritated'
p1183
I2698
sS'stressful'
p1184
I1605
sS'barbie'
p1185
I2699
sS'rome'
p1186
I2339
sS'current'
p1187
I2702
sS'300'
p1188
I2491
sS'thetriathlon'
p1189
I2703
sS'goes'
p1190
I1125
sS'supplies'
p1191
I1501
sS'falling'
p1192
I864
sS'dogtraining'
p1193
I3532
sS'filled'
p1194
I526
sS'burn'
p1195
I3362
sS'jury'
p1196
I1126
sS'wrestler'
p1197
I1609
sS'bandwagon'
p1198
I2706
sS'grandparents'
p1199
I1127
sS'funeral'
p1200
I865
sS'makeup'
p1201
I1064
sS'handyman'
p1202
I2708
sS'french'
p1203
I2709
sS'rug'
p1204
I1610
sS'water'
p1205
I158
sS'snack'
p1206
I2941
sS'baseball'
p1207
I866
sS'tinythecat'
p1208
I2711
sS'alone'
p1209
I651
sS'based'
p1210
I2712
sS'along'
p1211
I1129
sS'teacher'
p1212
I231
sS'change'
p1213
I867
sS'wait'
p1214
I138
sS'box'
p1215
I868
sS'boy'
p1216
I347
sS'impatiently'
p1217
I2713
sS'healthy'
p1218
I128
sS'shift'
p1219
I2714
sS'studied'
p1220
I2715
sS'guilty'
p1221
I1130
sS'shelia'
p1222
I2716
sS"julie'sbadpizza"
p1223
I2717
sS'trial'
p1224
I1612
sS'accomplished'
p1225
I1613
sS'diagnosed'
p1226
I1614
sS'theappletree'
p1227
I2718
sS'usually'
p1228
I348
sS'bob'
p1229
I150
sS'shook'
p1230
I2719
sS'goingtothebeach'
p1231
I2720
sS'pillow'
p1232
I1615
sS'teenage'
p1233
I1616
sS'love'
p1234
I494
sS'santa'
p1235
I3716
sS'hiking'
p1236
I527
sS'extra'
p1237
I1132
sS'strawberryjelly'
p1238
I2721
sS'overcomingshortcomings'
p1239
I3717
sS'prefer'
p1240
I2722
sS'marked'
p1241
I2723
sS'losing'
p1242
I1556
sS'candice'
p1243
I1133
sS'touchdown'
p1244
I2724
sS'robwenttowork'
p1245
I2726
sS'rarely'
p1246
I1617
sS'recording'
p1247
I3553
sS'market'
p1248
I2727
sS'sky'
p1249
I3580
sS'sweating'
p1250
I1134
sS'darnell'
p1251
I2728
sS'working'
p1252
I175
sS'prove'
p1253
I2729
sS'ariel'
p1254
I2730
sS'countrymusicconcert'
p1255
I2594
sS'angry'
p1256
I405
sS'visit'
p1257
I1135
sS'tears'
p1258
I2732
sS'angela'
p1259
I2733
sS'sports'
p1260
I869
sS'hurriedly'
p1261
I2622
sS'cherished'
p1262
I2735
sS'smithfamilytrip'
p1263
I2099
sS'andy'
p1264
I322
sS'philvisitsireland'
p1265
I2736
sS'memory'
p1266
I2737
sS'wanting'
p1267
I1619
sS'candidates'
p1268
I4102
sS'today'
p1269
I528
sS'intently'
p1270
I1621
sS'dismay'
p1271
I2738
sS'entrance'
p1272
I1895
sS'kerry'
p1273
I1622
sS"noah'sarches"
p1274
I2740
sS'conductor'
p1275
I2741
sS'faith'
p1276
I3720
sS'club'
p1277
I1137
sS"sam'stest"
p1278
I2743
sS'claus'
p1279
I2744
sS'cashier'
p1280
I716
sS'chocolate'
p1281
I1623
sS'everywhere'
p1282
I2745
sS'thecouch'
p1283
I2746
sS'fly'
p1284
I2747
sS'monstertruckrally'
p1285
I2748
sS'graphic'
p1286
I2749
sS'anything'
p1287
I568
sS'decked'
p1288
I2750
sS'car'
p1289
I100
sS'originally'
p1290
I2752
sS'pretend'
p1291
I1624
sS'flu'
p1292
I2753
sS'jude'
p1293
I1139
sS'cat'
p1294
I232
sS'reviews'
p1295
I2754
sS'wallet'
p1296
I1923
sS'judy'
p1297
I614
sS'printing'
p1298
I2756
sS'can'
p1299
I110
sS'cam'
p1300
I1140
sS'growing'
p1301
I871
sS'making'
p1302
I717
sS'interstate'
p1303
I2946
sS'pickle'
p1304
I2758
sS'ribs'
p1305
I2759
sS'nearest'
p1306
I1141
sS'crazy'
p1307
I2760
sS'theparrot'
p1308
I2761
sS'jillsnewsweater'
p1309
I2606
sS'figure'
p1310
I1142
sS'december'
p1311
I2763
sS'awesome'
p1312
I2764
sS'coastertime'
p1313
I2765
sS'confused'
p1314
I872
sS'agent'
p1315
I1143
sS'soup'
p1316
I2755
sS'topic'
p1317
I1909
sS'heard'
p1318
I151
sS'stroke'
p1319
I2767
sS'performed'
p1320
I1335
sS'buyingacomputer'
p1321
I2768
sS'anniversarygift'
p1322
I2292
sS'spa'
p1323
I2770
sS'stole'
p1324
I873
sS'listens'
p1325
I2771
sS'pink'
p1326
I874
sS'swung'
p1327
I3335
sS'winter'
p1328
I1337
sS'jen'
p1329
I4355
sS'secured'
p1330
I2420
sS'thebully'
p1331
I2776
sS'ping'
p1332
I1627
sS'freezer'
p1333
I2777
sS'likelystorythat'
p1334
I2778
sS'write'
p1335
I875
sS'sunday'
p1336
I1628
sS'bonded'
p1337
I3336
sS'themess'
p1338
I2781
sS'elephant'
p1339
I1629
sS'beans'
p1340
I3726
sS'teasers'
p1341
I3842
sS'photography'
p1342
I4109
sS'allergicreaction'
p1343
I3414
sS'map'
p1344
I2783
sS'staying'
p1345
I1630
sS'jazz'
p1346
I2951
sS'laundry'
p1347
I2784
sS'skates'
p1348
I2785
sS'may'
p1349
I2786
sS'max'
p1350
I876
sS'granddaughter'
p1351
I2787
sS'spot'
p1352
I877
sS'timcontrolshisgamblingproblem'
p1353
I3398
sS'crashed'
p1354
I1145
sS'birthday'
p1355
I262
sS'mad'
p1356
I425
sS'date'
p1357
I323
sS'such'
p1358
I879
sS'dove'
p1359
I2368
sS'grow'
p1360
I615
sS'mushrooms'
p1361
I3972
sS'man'
p1362
I101
sS'classroom'
p1363
I2792
sS'stress'
p1364
I880
sS'natural'
p1365
I1355
sS'remember'
p1366
I529
sS'liquid'
p1367
I2794
sS'conscious'
p1368
I1631
sS'maybe'
p1369
I2795
sS'thelightningstorm'
p1370
I2796
sS'criminal'
p1371
I3957
sS'so'
p1372
I30
sS'crept'
p1373
I2798
sS'kurt'
p1374
I2800
sS'pulled'
p1375
I471
sS'talk'
p1376
I1632
sS'typical'
p1377
I2801
sS'refund'
p1378
I881
sS'serving'
p1379
I1633
sS'shoes'
p1380
I472
sS'seeing'
p1381
I1887
sS'pointed'
p1382
I2803
sS'haircut'
p1383
I2804
sS'displayed'
p1384
I2805
sS'years'
p1385
I182
sS'brain'
p1386
I920
sS'shake'
p1387
I2806
sS'argued'
p1388
I2807
sS'cold'
p1389
I882
sS'still'
p1390
I530
sS'hideandseek'
p1391
I2808
sS'birds'
p1392
I1147
sS'tore'
p1393
I2809
sS'avid'
p1394
I883
sS'police'
p1395
I149
sS'monitor'
p1396
I2000
sS'josie'
p1397
I2811
sS'reluctant'
p1398
I2812
sS'interesting'
p1399
I2813
sS'jim'
p1400
I718
sS'clubbing'
p1401
I2194
sS'thenewword'
p1402
I4278
sS'window'
p1403
I349
sS'according'
p1404
I2815
sS'melvin'
p1405
I2816
sS'mail'
p1406
I473
sS'hanks'
p1407
I2817
sS'kabobs'
p1408
I2818
sS'happened'
p1409
I1635
sS'evacuated'
p1410
I2819
sS'non'
p1411
I884
sS'honeymoon'
p1412
I1822
sS'shayla'
p1413
I1148
sS'thenewartteacher'
p1414
I2821
sS'appraised'
p1415
I2822
sS'devastated'
p1416
I2823
sS'snowday'
p1417
I2824
sS'underneath'
p1418
I2825
sS'interview'
p1419
I458
sS'course'
p1420
I1021
sS'half'
p1421
I1636
sS'not'
p1422
I71
sS'now'
p1423
I97
sS'hall'
p1424
I719
sS'nor'
p1425
I1637
sS'gardenharvest'
p1426
I2826
sS'laurahasadaughter'
p1427
I4248
sS'shouted'
p1428
I2827
sS'name'
p1429
I1149
sS'freya'
p1430
I2828
sS'opera'
p1431
I1974
sS'james'
p1432
I304
sS'didn'
p1433
I111
sS'locked'
p1434
I2677
sS'intrigued'
p1435
I2831
sS'rock'
p1436
I886
sS'scolded'
p1437
I2833
sS'stays'
p1438
I3364
sS'repaired'
p1439
I720
sS'revere'
p1440
I2834
sS'turtle'
p1441
I474
sS'r'
p1442
I4289
sS'theunfortunatehuntingtrip'
p1443
I2835
sS'sweettooth'
p1444
I2836
sS'fired'
p1445
I617
sS'mexico'
p1446
I1109
sS'challenged'
p1447
I2014
sS'ed'
p1448
I1639
sS'fires'
p1449
I2840
sS'whataday'
p1450
I2841
sS'ex'
p1451
I2842
sS'year'
p1452
I214
sS"james'job"
p1453
I2843
sS'girl'
p1454
I142
sS'morning'
p1455
I269
sS'pills'
p1456
I2844
sS'amusement'
p1457
I1640
sS'wheelers'
p1458
I2355
sS'album'
p1459
I2846
sS'living'
p1460
I531
sS'medications'
p1461
I1641
sS'container'
p1462
I1642
sS'opened'
p1463
I887
sS'3rd'
p1464
I2789
sS'space'
p1465
I1643
sS'profit'
p1466
I2848
sS'thejobinterview'
p1467
I2181
sS'firstdayofschool'
p1468
I1644
sS'entree'
p1469
I3923
sS'rent'
p1470
I3712
sS'looking'
p1471
I270
sS'seriously'
p1472
I2850
sS'jaime'
p1473
I2851
sS'internet'
p1474
I1150
sS'formula'
p1475
I2852
sS'stitches'
p1476
I1463
sS'chewinggum'
p1477
I2853
sS'shows'
p1478
I1152
sS'maneuver'
p1479
I2854
sS'attended'
p1480
I1646
sS'monster'
p1481
I888
sS'hairdresser'
p1482
I2855
sS'cars'
p1483
I1647
sS'seventh'
p1484
I2856
sS'teddybears'
p1485
I2857
sS'quite'
p1486
I1648
sS'worries'
p1487
I2961
sS'carl'
p1488
I1650
sS'miley'
p1489
I2858
sS'brooke'
p1490
I2149
sS'cough'
p1491
I2860
sS'card'
p1492
I426
sS'care'
p1493
I350
sS'training'
p1494
I1153
sS'reply'
p1495
I2704
sS'couldn'
p1496
I889
sS'language'
p1497
I2861
sS'waiter'
p1498
I2862
sS'discussing'
p1499
I2863
sS'thirties'
p1500
I4024
sS'headphones'
p1501
I2864
sS'modest'
p1502
I1435
sS'replacement'
p1503
I4260
sS'thing'
p1504
I1154
sS'lindsey'
p1505
I2865
sS'place'
p1506
I890
sS'massive'
p1507
I1651
sS'swing'
p1508
I1652
sS'promotion'
p1509
I891
sS'think'
p1510
I532
sS'waited'
p1511
I618
sS'first'
p1512
I79
sS'blind'
p1513
I1653
sS'flying'
p1514
I2866
sS'saving'
p1515
I721
sS'softball'
p1516
I1620
sS'one'
p1517
I42
sS'clumsy'
p1518
I2870
sS'long'
p1519
I72
sS'suspended'
p1520
I1157
sS'spanish'
p1521
I1158
sS'carry'
p1522
I2305
sS'rmv'
p1523
I2872
sS'ring'
p1524
I1159
sS'drove'
p1525
I191
sS'open'
p1526
I892
sS'tomorrow'
p1527
I1160
sS'mix'
p1528
I4068
sS'marlene'
p1529
I1654
sS'rented'
p1530
I427
sS'city'
p1531
I428
sS'little'
p1532
I106
sS'ian'
p1533
I459
sS'checked'
p1534
I1314
sS'silent'
p1535
I2875
sS'newfamily'
p1536
I2876
sS'goingupinranks'
p1537
I2877
sS'caught'
p1538
I476
sS'slept'
p1539
I619
sS'haggle'
p1540
I2878
sS'worryaboutmexico'
p1541
I2879
sS'wing'
p1542
I4348
sS'2'
p1543
I1161
sS'terrifying'
p1544
I2880
sS'stuffed'
p1545
I722
sS'convention'
p1546
I893
sS'desmond'
p1547
I2881
sS'white'
p1548
I1162
sS'marnie'
p1549
I2963
sS'friend'
p1550
I85
sS'eyes'
p1551
I2882
sS'dived'
p1552
I2964
sS'mostly'
p1553
I2883
sS'that'
p1554
I33
sS'season'
p1555
I1656
sS'released'
p1556
I1163
sS'soren'
p1557
I1657
sS'dessert'
p1558
I2884
sS'gin'
p1559
I2885
sS'probably'
p1560
I4114
sS'longhair'
p1561
I3919
sS'copy'
p1562
I620
sS'slipandslide'
p1563
I2886
sS'than'
p1564
I252
sS'boyfriend'
p1565
I384
sS'11'
p1566
I2887
sS'10'
p1567
I2387
sS':'
p1568
I2889
sS'unfortunately'
p1569
I1164
sS'sailing'
p1570
I1658
sS'16'
p1571
I1506
sS'donaldbreakshisskateboard'
p1572
I2891
sS'daviddropstheweight'
p1573
I2892
sS'rehab'
p1574
I2893
sS'future'
p1575
I723
sS'apples'
p1576
I1165
sS'venture'
p1577
I2894
sS'were'
p1578
I23
sS'cards'
p1579
I724
sS'college'
p1580
I283
sS'counselor'
p1581
I2430
sS'theinventionoflying'
p1582
I3354
sS'sophia'
p1583
I1659
sS'browser'
p1584
I1660
sS'and'
p1585
I11
sS'gathering'
p1586
I2896
sS'ana'
p1587
I2897
sS'sam'
p1588
I271
sS'movingout'
p1589
I2449
sS'ann'
p1590
I1167
sS'confessed'
p1591
I2898
sS'turned'
p1592
I351
sS'sad'
p1593
I75
sS'13th'
p1594
I2469
sS'medical'
p1595
I1785
sS'say'
p1596
I895
sS'theram'
p1597
I2902
sS'allen'
p1598
I2903
sS'breakfast'
p1599
I429
sS'recover'
p1600
I2904
sS'saw'
p1601
I109
sS'any'
p1602
I725
sS'marathon'
p1603
I1661
sS'sat'
p1604
I430
sS'speakers'
p1605
I1662
sS'sport'
p1606
I2972
sS'pekingese'
p1607
I2905
sS'overjoyed'
p1608
I2906
sS'allison'
p1609
I2485
sS'answering'
p1610
I2908
sS'theclown'
p1611
I2909
sS'ideas'
p1612
I896
sS'shocked'
p1613
I726
sS'zoo'
p1614
I477
sS'note'
p1615
I1168
sS'dining'
p1616
I2910
sS'thecourtcase'
p1617
I2911
sS'christiantakesataxi'
p1618
I2912
sS'take'
p1619
I91
sS'online'
p1620
I352
sS'bailey'
p1621
I1170
sS'performance'
p1622
I1540
sS'blunt'
p1623
I2914
sS'channel'
p1624
I1663
sS'surf'
p1625
I1664
sS'urge'
p1626
I2915
sS'begin'
p1627
I2565
sS'sure'
p1628
I1546
sS'pain'
p1629
I281
sS'trace'
p1630
I1665
sS'normal'
p1631
I1171
sS'tornado'
p1632
I1172
sS'price'
p1633
I533
sS'knew'
p1634
I431
sS'waterskiing'
p1635
I4240
sS'paid'
p1636
I324
sS'falls'
p1637
I1173
sS'joeygetsthejob'
p1638
I2215
sS'printed'
p1639
I2918
sS'connor'
p1640
I1348
sS'pair'
p1641
I253
sS'knee'
p1642
I1668
sS'beth'
p1643
I621
sS'inserted'
p1644
I2920
sS'grueling'
p1645
I2921
sS'michelle'
p1646
I2922
sS'lawn'
p1647
I534
sS'especially'
p1648
I1669
sS'room'
p1649
I230
sS'egg'
p1650
I938
sS'seafood'
p1651
I2621
sS'proud'
p1652
I267
sS'steady'
p1653
I1670
sS'hungry'
p1654
I383
sS'gracefully'
p1655
I2925
sS'tooth'
p1656
I710
sS'eggsfromabove'
p1657
I2978
sS'jitters'
p1658
I2927
sS'sunset'
p1659
I897
sS'hear'
p1660
I1470
sS'senior'
p1661
I2929
sS'surface'
p1662
I4197
sS'shop'
p1663
I346
sS'walking'
p1664
I121
sS'wishingforsnow'
p1665
I2931
sS'shot'
p1666
I727
sS'cherry'
p1667
I2932
sS'show'
p1668
I622
sS'cheat'
p1669
I1673
sS'bullied'
p1670
I3401
sS'energyefficient'
p1671
I2934
sS'cheap'
p1672
I433
sS'fifty'
p1673
I2935
sS'discovered'
p1674
I1174
sS'troy'
p1675
I1674
sS'therapist'
p1676
I1675
sS'corner'
p1677
I536
sS'aggressive'
p1678
I2937
sS'forecast'
p1679
I2980
sS'imagined'
p1680
I2938
sS'maine'
p1681
I2939
sS'fifth'
p1682
I1676
sS'crashing'
p1683
I1934
sS'slow'
p1684
I1128
sS'scaredblackman'
p1685
I3705
sS'nodded'
p1686
I2361
sS'stained'
p1687
I2942
sS'enough'
p1688
I325
sS'crime'
p1689
I623
sS'desired'
p1690
I2943
sS'only'
p1691
I624
sS'going'
p1692
I46
sS'black'
p1693
I385
sS'hockey'
p1694
I1677
sS'theboattrip'
p1695
I2944
sS'caroline'
p1696
I2945
sS'pumpkin'
p1697
I1625
sS'puddlejumping'
p1698
I2947
sS'thejail'
p1699
I2948
sS'get'
p1700
I45
sS'theweirdphotograph'
p1701
I2950
sS'routine'
p1702
I1020
sS'hailey'
p1703
I2952
sS'tricked'
p1704
I2953
sS'nearly'
p1705
I1678
sS'artist'
p1706
I729
sS'tractor'
p1707
I2956
sS'ahmad'
p1708
I2957
sS'worried'
p1709
I305
sS'jokes'
p1710
I1679
sS'miles'
p1711
I1317
sS'predicted'
p1712
I1176
sS'landlord'
p1713
I1177
sS'mapped'
p1714
I2960
sS'bekah'
p1715
I1649
sS'dough'
p1716
I1680
sS'finishing'
p1717
I898
sS'where'
p1718
I478
sS'husband'
p1719
I282
sS'ignored'
p1720
I1681
sS'thelosteye'
p1721
I4244
sS'picnic'
p1722
I1178
sS'concert'
p1723
I537
sS'ken'
p1724
I1027
sS'physically'
p1725
I2962
sS'fries'
p1726
I3761
sS'station'
p1727
I257
sS'committed'
p1728
I2949
sS'seat'
p1729
I2965
sS'christhelawyer'
p1730
I2966
sS'kyle'
p1731
I2592
sS'asleep'
p1732
I894
sS'sean'
p1733
I1179
sS'japan'
p1734
I2969
sS'joeyhastrouble'
p1735
I2970
sS'stanley'
p1736
I2971
sS'calendar'
p1737
I1683
sS'theconcert'
p1738
I2618
sS'thegoaldress'
p1739
I3740
sS'professed'
p1740
I2973
sS'totino'
p1741
I2802
sS'surfaces'
p1742
I2975
sS'dexter'
p1743
I2976
sS'satisfying'
p1744
I1684
sS'parent'
p1745
I2987
sS'camping'
p1746
I1180
sS'farmers'
p1747
I2788
sS'ways'
p1748
I2926
sS'jumped'
p1749
I538
sS'fascinated'
p1750
I2979
sS'materials'
p1751
I2346
sS'bigbox'
p1752
I3592
sS'outside'
p1753
I444
sS'permeated'
p1754
I2981
sS'rollerskatingadventure'
p1755
I2982
sS'enjoys'
p1756
I2983
sS'reading'
p1757
I899
sS'across'
p1758
I1686
sS'travels'
p1759
I2684
sS'stuart'
p1760
I3727
sS'longisland'
p1761
I2985
sS'jobs'
p1762
I1182
sS'allstonbrightonparade'
p1763
I2977
sS'screen'
p1764
I1687
sS'timmy'
p1765
I730
sS"ellie'sdancerecital"
p1766
I2988
sS'guitar'
p1767
I731
sS'caraccident'
p1768
I2989
sS'hebelievedinhim'
p1769
I2990
sS'realitytv'
p1770
I2991
sS'come'
p1771
I539
sS'recovered'
p1772
I1864
sS'useless'
p1773
I2993
sS'mona'
p1774
I2994
sS'many'
p1775
I163
sS'quiet'
p1776
I732
sS'contract'
p1777
I1688
sS'restroom'
p1778
I625
sS's'
p1779
I28
sS'loudly'
p1780
I1183
sS'buena'
p1781
I4315
sS'reluctantly'
p1782
I2996
sS'foodfight'
p1783
I3766
sS'groundhog'
p1784
I2998
sS'backpack'
p1785
I1690
sS'evict'
p1786
I2999
sS'nearby'
p1787
I3000
sS'riddle'
p1788
I3001
sS'butterflymagic'
p1789
I3002
sS'afterwards'
p1790
I1184
sS'cancer'
p1791
I733
sS'color'
p1792
I1691
sS'pot'
p1793
I3003
sS'jeans'
p1794
I734
sS'ants'
p1795
I3004
sS'twin'
p1796
I900
sS'pom'
p1797
I3005
sS'jammed'
p1798
I3006
sS'learning'
p1799
I1692
sS'polo'
p1800
I3007
sS'supervisor'
p1801
I3008
sS'poll'
p1802
I3009
sS'precious'
p1803
I4150
sS'boat'
p1804
I386
sS'turkey'
p1805
I3010
sS'better'
p1806
I316
sS'teammate'
p1807
I1693
sS'teddy'
p1808
I1732
sS'renovating'
p1809
I2829
sS'barry'
p1810
I235
sS'keys'
p1811
I3014
sS'informed'
p1812
I1186
sS'vacation'
p1813
I284
sS'mark'
p1814
I326
sS'breath'
p1815
I916
sS'combined'
p1816
I3016
sS'rancher'
p1817
I1696
sS'dessie'
p1818
I3019
sS'mary'
p1819
I626
sS'500'
p1820
I3020
sS'wants'
p1821
I735
sS'suzywantsatoy'
p1822
I3021
sS'shopping'
p1823
I353
sS'income'
p1824
I3786
sS'offered'
p1825
I434
sS'andrew'
p1826
I627
sS'dangerous'
p1827
I4122
sS'tiger'
p1828
I3022
sS'photos'
p1829
I1697
sS'spills'
p1830
I3023
sS'wake'
p1831
I1187
sS'textbook'
p1832
I3024
sS'asks'
p1833
I4133
sS'careful'
p1834
I901
sS'those'
p1835
I1311
sS'case'
p1836
I736
sS'myself'
p1837
I1188
sS'these'
p1838
I3028
sS'sauce'
p1839
I1799
sS'chinatown'
p1840
I1699
sS'cash'
p1841
I902
sS'trick'
p1842
I3029
sS'cast'
p1843
I1189
sS'cure'
p1844
I2511
sS'newspaper'
p1845
I903
sS'situation'
p1846
I1700
sS'shops'
p1847
I3031
sS'landslide'
p1848
I3032
sS'invited'
p1849
I583
sS'pro'
p1850
I3033
sS'betterasfriends'
p1851
I3774
sS'reunitedatthereunion'
p1852
I4186
sS'eventually'
p1853
I690
sS"jill'ssurprise"
p1854
I3034
sS'purse'
p1855
I540
sS'coffee'
p1856
I272
sS'thebotoxparty'
p1857
I3035
sS'sleeping'
p1858
I1190
sS'middle'
p1859
I737
sS'someone'
p1860
I939
sS'punched'
p1861
I904
sS'whimpering'
p1862
I1702
sS'heels'
p1863
I3036
sS'return'
p1864
I3384
sS'toothache'
p1865
I1790
sS'property'
p1866
I1191
sS'technology'
p1867
I3038
sS'ivy'
p1868
I1240
sS'worry'
p1869
I1703
sS'ceilingfan'
p1870
I2890
sS'bags'
p1871
I3039
sS'different'
p1872
I234
sS'greedyhippos'
p1873
I3040
sS'theparkingspace'
p1874
I3041
sS'doctor'
p1875
I183
sS'pay'
p1876
I479
sS'horatio'
p1877
I1704
sS'bowl'
p1878
I1244
sS'tour'
p1879
I3043
sS'same'
p1880
I542
sS'trip'
p1881
I215
sS'skittles'
p1882
I4067
sS'johnsellshishouse'
p1883
I3872
sS'speech'
p1884
I905
sS'coworkers'
p1885
I1705
sS'stepped'
p1886
I906
sS'finallytallenough'
p1887
I2218
sS'events'
p1888
I907
sS'pan'
p1889
I908
sS'week'
p1890
I164
sS'noble'
p1891
I3045
sS'finish'
p1892
I1192
sS'tunafiend'
p1893
I3046
sS'closest'
p1894
I738
sS'kickballleague'
p1895
I3387
sS'defy'
p1896
I3049
sS'arden'
p1897
I1706
sS'driver'
p1898
I543
sS'drives'
p1899
I3050
sS'weed'
p1900
I3051
sS'director'
p1901
I1707
sS'running'
p1902
I480
sS'fruit'
p1903
I739
sS'climbing'
p1904
I3053
sS'totally'
p1905
I1708
sS'perfectly'
p1906
I4207
sS'complained'
p1907
I1709
sS'toomuch'
p1908
I3054
sS'theater'
p1909
I481
sS'horacereplacesabulb'
p1910
I3055
sS'mudrungroup'
p1911
I3056
sS'no'
p1912
I165
sS"marcy'scookie"
p1913
I3057
sS'dolphincruise'
p1914
I3058
sS'severe'
p1915
I3059
sS'without'
p1916
I1711
sS'thecollegevisit'
p1917
I2241
sS'genie'
p1918
I3061
sS'model'
p1919
I1193
sS'reward'
p1920
I3062
sS'eyeing'
p1921
I3063
sS'amazed'
p1922
I628
sS'charged'
p1923
I1712
sS'summer'
p1924
I436
sS'janet'
p1925
I2974
sS'sprayed'
p1926
I1713
sS'noah'
p1927
I3064
sS'being'
p1928
I740
sS'money'
p1929
I143
sS'sights'
p1930
I1714
sS'adjusted'
p1931
I4161
sS'rest'
p1932
I1194
sS'slimy'
p1933
I3066
sS'kill'
p1934
I1195
sS'actor'
p1935
I3067
sS'harrison'
p1936
I3068
sS'positions'
p1937
I3069
sS'polish'
p1938
I3070
sS'speed'
p1939
I1196
sS'captured'
p1940
I3071
sS'halfway'
p1941
I1715
sS'jamonbread'
p1942
I3072
sS'asatisfyingsolution'
p1943
I3407
sS'death'
p1944
I3073
sS'grounded'
p1945
I741
sS'nick'
p1946
I910
sS'stuartbuysabowtie'
p1947
I3074
sS'blog'
p1948
I3075
sS'instrument'
p1949
I3076
sS'gardening'
p1950
I3688
sS'pile'
p1951
I437
sS'4'
p1952
I3077
sS'halftime'
p1953
I3078
sS'struck'
p1954
I3079
sS'sucked'
p1955
I3080
sS'pill'
p1956
I1716
sS'ross'
p1957
I1197
sS'swim'
p1958
I387
sS'starving'
p1959
I3081
sS'jake'
p1960
I1198
sS'crusty'
p1961
I3082
sS'around'
p1962
I482
sS'sticky'
p1963
I3083
sS'marcus'
p1964
I3392
sS'read'
p1965
I403
sS'spaghettisauce'
p1966
I3084
sS'stung'
p1967
I1719
sS'papers'
p1968
I2642
sS'fridge'
p1969
I544
sS'amy'
p1970
I653
sS'scraps'
p1971
I3086
sS'jimwins'
p1972
I3087
sS'traffic'
p1973
I3088
sS'mom'
p1974
I166
sS'holly'
p1975
I3090
sS'world'
p1976
I388
sS'accepted'
p1977
I1199
sS'lady'
p1978
I1299
sS'forecaster'
p1979
I3091
sS'furniture'
p1980
I1721
sS'thecake'
p1981
I3092
sS'vending'
p1982
I1722
sS'4thofjuly'
p1983
I3093
sS'pounds'
p1984
I3094
sS'hotel'
p1985
I1262
sS'pole'
p1986
I1723
sS'tia'
p1987
I3096
sS'altogether'
p1988
I3279
sS'audience'
p1989
I3097
sS'rachael'
p1990
I3098
sS't'
p1991
I73
sS'replacinganoldcomputer'
p1992
I3099
sS'fully'
p1993
I911
sS'served'
p1994
I1685
sS'sharp'
p1995
I2769
sS'scalpel'
p1996
I3101
sS'joking'
p1997
I3102
sS'doll'
p1998
I3103
sS'30'
p1999
I3104
sS'paris'
p2000
I3210
sS'pickled'
p2001
I3105
sS'competition'
p2002
I483
sS'chuck'
p2003
I3106
sS'thebigjump'
p2004
I4165
sS'thesurprise'
p2005
I3107
sS'stormed'
p2006
I1667
sS'fastcar'
p2007
I3108
sS'images'
p2008
I1724
sS'pickles'
p2009
I1725
sS'joan'
p2010
I1726
sS'thinks'
p2011
I1200
sS'choosingabook'
p2012
I3109
sS"marcy'sbadday"
p2013
I3110
sS'slice'
p2014
I630
sS'mood'
p2015
I3111
sS'cavity'
p2016
I1728
sS'tube'
p2017
I2774
sS'recorded'
p2018
I3113
sS'frantically'
p2019
I1729
sS'stops'
p2020
I3114
sS'moon'
p2021
I1201
sS'bedtime'
p2022
I3150
sS'ellie'
p2023
I912
sS'dealership'
p2024
I913
sS'snapped'
p2025
I4287
sS'custody'
p2026
I3115
sS'heimlich'
p2027
I3771
sS'quitting'
p2028
I1915
sS'knife'
p2029
I3119
sS'process'
p2030
I3898
sS'football'
p2031
I1730
sS'power'
p2032
I1202
sS'vivian'
p2033
I1731
sS'seconds'
p2034
I3120
sS'manufactured'
p2035
I3121
sS'fatgoldfish'
p2036
I3122
sS'fitness'
p2037
I3123
sS'francie'
p2038
I3124
sS'tuition'
p2039
I3125
sS'broken'
p2040
I484
sS"let'splanatrip"
p2041
I3126
sS'terrified'
p2042
I914
sS'raul'
p2043
I3127
sS'francis'
p2044
I1203
sS'throw'
p2045
I742
sS'on'
p2046
I29
sS'ok'
p2047
I3128
sS'ace'
p2048
I3129
sS'package'
p2049
I743
sS'of'
p2050
I17
sS'marc'
p2051
I3012
sS'favorite'
p2052
I139
sS'brittany'
p2053
I3131
sS'becky'
p2054
I2954
sS'side'
p2055
I835
sS'tumor'
p2056
I1947
sS'familypests'
p2057
I3013
sS'mugging'
p2058
I3135
sS'wolf'
p2059
I1733
sS'stand'
p2060
I1204
sS'neighbor'
p2061
I546
sS'toothpaste'
p2062
I1694
sS'philplayssoccer'
p2063
I3136
sS'or'
p2064
I547
sS'road'
p2065
I273
sS'amber'
p2066
I3137
sS'heater'
p2067
I3138
sS'uhaul'
p2068
I3139
sS'protests'
p2069
I3140
sS'smallfish'
p2070
I2550
sS'cara'
p2071
I3142
sS'follows'
p2072
I3143
sS'coupon'
p2073
I3144
sS'communication'
p2074
I3145
sS'skilled'
p2075
I1734
sS'earring'
p2076
I3147
sS'cheftasha'
p2077
I4172
sS"john'ssuccess"
p2078
I3148
sS'accounts'
p2079
I3149
sS'jasper'
p2080
I1413
sS"children'sshow"
p2081
I3151
sS'gary'
p2082
I915
sS'elementary'
p2083
I3152
sS'mental'
p2084
I3153
sS'cared'
p2085
I3015
sS'log'
p2086
I1205
sS'prepare'
p2087
I917
sS'area'
p2088
I3154
sS'jollyrancher'
p2089
I3155
sS'there'
p2090
I103
sS'shelly'
p2091
I1736
sS'meals'
p2092
I3156
sS'start'
p2093
I355
sS'handcuffed'
p2094
I3157
sS'poured'
p2095
I1325
sS'missy'
p2096
I3158
sS'low'
p2097
I918
sS'lot'
p2098
I74
sS'theroadtrip'
p2099
I3159
sS'attends'
p2100
I4171
sS'tiffany'
p2101
I1367
sS'onewaytoparis'
p2102
I3160
sS'allergic'
p2103
I1206
sS"miley'scaristoast"
p2104
I3667
sS'exasperated'
p2105
I3162
sS'complete'
p2106
I485
sS'hoda'
p2107
I3163
sS'reduce'
p2108
I944
sS'printer'
p2109
I3164
sS'pitcher'
p2110
I3165
sS'allan'
p2111
I3848
sS'cycle'
p2112
I3168
sS'trying'
p2113
I199
sS'with'
p2114
I25
sS'buying'
p2115
I638
sS'happening'
p2116
I1735
sS'pull'
p2117
I548
sS'rush'
p2118
I631
sS'october'
p2119
I3171
sS'improved'
p2120
I1208
sS'celebrating'
p2121
I2936
sS'greeted'
p2122
I2502
sS'tiny'
p2123
I2050
sS'inseparable'
p2124
I3173
sS'dirty'
p2125
I1740
sS'suitcase'
p2126
I3176
sS'organize'
p2127
I1467
sS'grass'
p2128
I3177
sS'rescued'
p2129
I3796
sS'glenda'
p2130
I1741
sS'gone'
p2131
I285
sS'hated'
p2132
I1389
sS'johnny'
p2133
I549
sS'taste'
p2134
I1742
sS'certain'
p2135
I3180
sS'hosted'
p2136
I2262
sS'am'
p2137
I1307
sS"molly'sbigraise"
p2138
I3182
sS'deep'
p2139
I921
sS'an'
p2140
I116
sS'imagination'
p2141
I3183
sS'as'
p2142
I144
sS'ensuing'
p2143
I3184
sS'together'
p2144
I209
sS'walks'
p2145
I3185
sS'girlfriend'
p2146
I306
sS'watched'
p2147
I1744
sS'nerd'
p2148
I1210
sS'film'
p2149
I1211
sS'fill'
p2150
I801
sS'again'
p2151
I357
sS'stumbled'
p2152
I1212
sS'heather'
p2153
I1213
sS"jane'snewjob"
p2154
I3186
sS'rubbed'
p2155
I3187
sS'retiring'
p2156
I3188
sS'drivers'
p2157
I3189
sS'storage'
p2158
I3190
sS'thevacuum'
p2159
I2968
sS'field'
p2160
I1034
sS'badly'
p2161
I2838
sS'nasa'
p2162
I3800
sS'5'
p2163
I3194
sS'gambling'
p2164
I1214
sS'you'
p2165
I486
sS'puppy'
p2166
I296
sS'thousand'
p2167
I1746
sS'gaining'
p2168
I3195
sS"jessie's40th"
p2169
I3196
sS'poop'
p2170
I3197
sS'classmate'
p2171
I3198
sS'regardless'
p2172
I3199
sS'students'
p2173
I744
sS'teeth'
p2174
I1747
sS'overreact'
p2175
I3200
sS'squash'
p2176
I3201
sS'gifts'
p2177
I1748
sS'applepicking'
p2178
I3202
sS'important'
p2179
I922
sS'freshmanfears'
p2180
I3203
sS'poodle'
p2181
I3204
sS'terry'
p2182
I2047
sS'chris'
p2183
I1215
sS'cheapthrills'
p2184
I3207
sS'puked'
p2185
I3208
sS'redecorating'
p2186
I3209
sS'finals'
p2187
I3211
sS'pool'
p2188
I358
sS'building'
p2189
I550
sS'rage'
p2190
I3172
sS'remote'
p2191
I633
sS'calls'
p2192
I1749
sS'wife'
p2193
I133
sS'tanner'
p2194
I3213
sS'oprah'
p2195
I3214
sS'mask'
p2196
I1750
sS'sounded'
p2197
I3215
sS'dramatic'
p2198
I3216
sS'mass'
p2199
I3217
sS'adam'
p2200
I3218
sS'scare'
p2201
I4017
sS'scoops'
p2202
I3250
sS'prettypictures'
p2203
I3805
sS'starting'
p2204
I551
sS'psychic'
p2205
I3220
sS'all'
p2206
I38
sS'forget'
p2207
I3222
sS'chinese'
p2208
I1752
sS'sadheisgone'
p2209
I3223
sS'thekiss'
p2210
I3225
sS'off-road'
p2211
I3226
sS'allergy'
p2212
I1753
sS'dollar'
p2213
I1754
sS'worms'
p2214
I1755
sS'freedonutday'
p2215
I3227
sS'month'
p2216
I634
sS'disc'
p2217
I3228
sS'deadline'
p2218
I1756
sS'infestation'
p2219
I4182
sS'christmastree'
p2220
I2113
sS'faster'
p2221
I1739
sS'revealed'
p2222
I3231
sS'children'
p2223
I1217
sS'emily'
p2224
I1218
sS'shattered'
p2225
I1757
sS'apartment'
p2226
I814
sS'peter'
p2227
I4266
sS'hunting'
p2228
I1219
sS'tv'
p2229
I635
sS'thegaragesale'
p2230
I3233
sS'to'
p2231
I5
sS'aaron'
p2232
I923
sS'program'
p2233
I1220
sS'robber'
p2234
I3027
sS'health'
p2235
I1607
sS'enjoying'
p2236
I1221
sS'lostdog'
p2237
I4097
sS'hill'
p2238
I3237
sS'activities'
p2239
I924
sS'woman'
p2240
I328
sS'appointment'
p2241
I1222
sS'returned'
p2242
I1223
sS'sitting'
p2243
I576
sS'very'
p2244
I35
sS'horror'
p2245
I3239
sS'detention'
p2246
I3240
sS'fat'
p2247
I925
sS'vera'
p2248
I3241
sS'aware'
p2249
I3242
sS'chores'
p2250
I3243
sS'fan'
p2251
I926
sS'surprise'
p2252
I1580
sS'awful'
p2253
I2222
sS'ticket'
p2254
I745
sS'difference'
p2255
I3245
sS'icecreamsamples'
p2256
I3246
sS'toobad'
p2257
I3752
sS'elated'
p2258
I1761
sS"dean'ssong"
p2259
I3247
sS'trudy'
p2260
I3831
sS'cable'
p2261
I1762
sS'thesale'
p2262
I3248
sS'mudpies'
p2263
I2255
sS'thepharmacy'
p2264
I3619
sS'laying'
p2265
I3025
sS'joined'
p2266
I2261
sS'grandfather'
p2267
I3252
sS'large'
p2268
I171
sS'dinosaur'
p2269
I1763
sS'skate'
p2270
I3253
sS'soccergame'
p2271
I3254
sS'harry'
p2272
I1227
sS'small'
p2273
I552
sS'lisa'
p2274
I3255
sS'spooked'
p2275
I3256
sS'ninetieth'
p2276
I3257
sS'withoutajob'
p2277
I3258
sS'cookies'
p2278
I553
sS'neighborhood'
p2279
I1764
sS'portable'
p2280
I3259
sS'ten'
p2281
I1471
sS'theparty'
p2282
I3261
sS'tea'
p2283
I1765
sS'streets'
p2284
I1766
sS'ted'
p2285
I636
sS'robyn'
p2286
I3262
sS'babyname'
p2287
I3017
sS'knitted'
p2288
I3264
sS'burger'
p2289
I2319
sS'zero'
p2290
I3266
sS'design'
p2291
I1480
sS'lawyer'
p2292
I1228
sS'pass'
p2293
I3268
sS'further'
p2294
I927
sS'scrambledeggs'
p2295
I3269
sS'ribbon'
p2296
I3270
sS'bass'
p2297
I3271
sS'what'
p2298
I255
sS'stood'
p2299
I746
sS'darkness'
p2300
I1411
sS'richard'
p2301
I1767
sS'clock'
p2302
I928
sS'thegocart'
p2303
I3273
sS'sun'
p2304
I3274
sS'lawrence'
p2305
I1809
sS'anniversary'
p2306
I3276
sS'crush'
p2307
I1769
sS'reeled'
p2308
I3277
sS'learned'
p2309
I439
sS'public'
p2310
I3278
sS'hasn'
p2311
I1229
sS'full'
p2312
I748
sS'christian'
p2313
I1566
sS'thegroundhog'
p2314
I3396
sS'bowtie'
p2315
I3280
sS'ma'
p2316
I3281
sS'unprofessional'
p2317
I3282
sS'answers'
p2318
I929
sS'hours'
p2319
I184
sS'wild'
p2320
I2357
sS'ramon'
p2321
I3284
sS'startingrunning'
p2322
I3285
sS'trunk'
p2323
I3286
sS'directions'
p2324
I3287
sS"don'tswimindecember"
p2325
I3288
sS'method'
p2326
I3289
sS'strong'
p2327
I3290
sS'tigey'
p2328
I1770
sS'stacychangeshermind'
p2329
I2458
sS'search'
p2330
I390
sS'colored'
p2331
I3292
sS'debate'
p2332
I2701
sS'myshoppingtrip'
p2333
I3293
sS'inspired'
p2334
I3294
sS'logged'
p2335
I3295
sS'jackie'
p2336
I3296
sS'experience'
p2337
I1230
sS'airport'
p2338
I307
sS'base'
p2339
I1771
sS'lasagna'
p2340
I3297
sS'horrified'
p2341
I1772
sS'within'
p2342
I3731
sS'pick'
p2343
I554
sS'action'
p2344
I1101
sS'justinorderspizza'
p2345
I3298
sS'options'
p2346
I1773
sS'alice'
p2347
I3685
sS'trainer'
p2348
I1231
sS'thebabysitter'
p2349
I1775
sS'jeffwinsitall'
p2350
I3299
sS'followed'
p2351
I2519
sS'family'
p2352
I92
sS'suddenly'
p2353
I286
sS'transit'
p2354
I3301
sS'emptied'
p2355
I3302
sS'straightened'
p2356
I3303
sS'follower'
p2357
I3275
sS'janegetsabadgrade'
p2358
I3305
sS'trained'
p2359
I3306
sS'toys'
p2360
I1777
sS'pulls'
p2361
I1778
sS'cutfinger'
p2362
I3307
sS'barked'
p2363
I3308
sS'charlesgraduates'
p2364
I3309
sS'attendance'
p2365
I3310
sS'eye'
p2366
I1779
sS'takes'
p2367
I3311
sS'donuts'
p2368
I3312
sS'texting'
p2369
I1232
sS'two'
p2370
I210
sS'vote'
p2371
I2871
sS'chessmastery'
p2372
I3313
sS'pitching'
p2373
I3314
sS'gorgeous'
p2374
I3315
sS'taken'
p2375
I930
sS'injury'
p2376
I1233
sS'thebestwrapper'
p2377
I3316
sS'minor'
p2378
I1780
sS'more'
p2379
I159
sS'teen'
p2380
I1781
sS'flat'
p2381
I1782
sS'door'
p2382
I440
sS'knows'
p2383
I556
sS'company'
p2384
I391
sS'telephone'
p2385
I2509
sS'motorsports'
p2386
I3318
sS'flag'
p2387
I1234
sS'stick'
p2388
I3319
sS'broke'
p2389
I931
sS'rudeness'
p2390
I3320
sS'known'
p2391
I3321
sS'anxious'
p2392
I3322
sS'thesaxophonist'
p2393
I3323
sS'glad'
p2394
I200
sS'town'
p2395
I637
sS'grill'
p2396
I3324
sS'keeping'
p2397
I3325
sS'hour'
p2398
I3326
sS'noconnection'
p2399
I2967
sS'science'
p2400
I1235
sS"meredith'smistake"
p2401
I3327
sS'guards'
p2402
I3328
sS'mall'
p2403
I932
sS'sudden'
p2404
I1701
sS'nine'
p2405
I3329
sS'desmondwantstobeastar'
p2406
I3330
sS'morgan'
p2407
I359
sS'learn'
p2408
I201
sS'knocked'
p2409
I1783
sS'dee'
p2410
I1236
sS'history'
p2411
I3331
sS'beautiful'
p2412
I152
sS'foodpoisoning'
p2413
I4176
sS'shark'
p2414
I1784
sS'hamburger'
p2415
I2725
sS'aphids'
p2416
I3332
sS'share'
p2417
I933
sS'ludo'
p2418
I1786
sS'autumn'
p2419
I1787
sS'pushed'
p2420
I1788
sS'thebonus'
p2421
I3333
sS'minimum'
p2422
I3334
sS'salty'
p2423
I1789
sS'numbers'
p2424
I1237
sS'purchased'
p2425
I934
sS'pond'
p2426
I1238
sS'pong'
p2427
I935
sS'disliked'
p2428
I2772
sS'dress'
p2429
I256
sS'species'
p2430
I2799
sS'botanist'
p2431
I2780
sS'/'
p2432
I3337
sS'!'
p2433
I81
sS'huge'
p2434
I216
sS'triathlon'
p2435
I3338
sS'impulse'
p2436
I2658
sS'goal'
p2437
I392
sS'drained'
p2438
I1239
sS'plans'
p2439
I2845
sS'breaking'
p2440
I3339
sS'everyday'
p2441
I541
sS'glowing'
p2442
I3341
sS'disturbed'
p2443
I3502
sS'speeding'
p2444
I1241
sS'heathercookstacosforthefirsttime'
p2445
I3344
sS'goingskiing'
p2446
I3345
sS'goat'
p2447
I1791
sS'competed'
p2448
I3346
sS'waved'
p2449
I3347
sS'thecatcher'
p2450
I3348
sS'plant'
p2451
I1242
sS'sandwich'
p2452
I393
sS'okay'
p2453
I936
sS'tried'
p2454
I221
sS'rude'
p2455
I749
sS'advice'
p2456
I750
sS'teddiscoversatopicofinterest'
p2457
I3349
sS'replace'
p2458
I3792
sS'plane'
p2459
I1792
sS'blood'
p2460
I1793
sS'coming'
p2461
I287
sS'backyard'
p2462
I1794
sS'tacos'
p2463
I2673
sS'authentic'
p2464
I3350
sS'advertisements'
p2465
I3664
sS'a'
p2466
I8
sS'abe'
p2467
I3272
sS'short'
p2468
I640
sS'brady'
p2469
I3351
sS'orchard'
p2470
I3352
sS'susan'
p2471
I329
sS'onto'
p2472
I3353
sS'quoted'
p2473
I2373
sS'register'
p2474
I3355
sS'rowdy'
p2475
I3356
sS'bugs'
p2476
I1243
sS'volleyball'
p2477
I937
sS"tim'scoffee"
p2478
I3357
sS'ianvisitsdallas'
p2479
I3358
sS'hisfeet'
p2480
I3359
sS'responsibility'
p2481
I1795
sS'hates'
p2482
I3361
sS'dream'
p2483
I254
sS'playing'
p2484
I95
sS'help'
p2485
I176
sS'reminded'
p2486
I3042
sS'flowers'
p2487
I3363
sS'advised'
p2488
I1930
sS'soon'
p2489
I394
sS'installed'
p2490
I1245
sS'disabled'
p2491
I1796
sS'thegrahams'
p2492
I2697
sS'paper'
p2493
I558
sS'through'
p2494
I236
sS'reconnect'
p2495
I1797
sS'signs'
p2496
I1246
sS'dozens'
p2497
I3368
sS'suffer'
p2498
I3369
sS'its'
p2499
I1247
sS'developer'
p2500
I3370
sS'bathtime'
p2501
I3371
sS'style'
p2502
I3372
sS'pens'
p2503
I2584
sS'21'
p2504
I3374
sS'23'
p2505
I1798
sS'pray'
p2506
I3375
sS'assaulting'
p2507
I3376
sS'sale'
p2508
I3377
sS'christmasday'
p2509
I3378
sS'actually'
p2510
I3379
sS'late'
p2511
I202
sS'laces'
p2512
I3380
sS'symptoms'
p2513
I3011
sS'thenerd'
p2514
I3381
sS'peanuts'
p2515
I3382
sS'travelling'
p2516
I3026
sS'soccer'
p2517
I435
sS'might'
p2518
I1698
sS'ally'
p2519
I1248
sS'fool'
p2520
I1800
sS'wouldn'
p2521
I1249
sS'good'
p2522
I67
sS'stupid'
p2523
I2959
sS'otto'
p2524
I4075
sS'food'
p2525
I94
sS'components'
p2526
I3386
sS'thedinner'
p2527
I3048
sS'disregarded'
p2528
I3435
sS'blinddate'
p2529
I3388
sS'snowball'
p2530
I3389
sS'olivia'
p2531
I1802
sS'starbucks'
p2532
I3770
sS'anewpet'
p2533
I3390
sS'foot'
p2534
I559
sS'adventurous'
p2535
I3391
sS'instructions'
p2536
I1251
sS'easily'
p2537
I1717
sS'gets'
p2538
I1803
sS'robbie'
p2539
I1252
sS'pregnant'
p2540
I642
sS'always'
p2541
I98
sS'kayaking'
p2542
I3393
sS'spy'
p2543
I3394
sS'habits'
p2544
I1804
sS'stopped'
p2545
I395
sS'thecall'
p2546
I4213
sS'die'
p2547
I1805
sS'found'
p2548
I60
sS'marry'
p2549
I2700
sS'trailer'
p2550
I941
sS'heavy'
p2551
I1254
sS'deathofamarchingband'
p2552
I3395
sS'everyone'
p2553
I643
sS'begged'
p2554
I942
sS'upstairs'
p2555
I943
sS'weight'
p2556
I560
sS'house'
p2557
I104
sS'fish'
p2558
I389
sS'hard'
p2559
I237
sS'haley'
p2560
I919
sS'idea'
p2561
I487
sS'accidentally'
p2562
I1255
sS'theorchard'
p2563
I3397
sS'oil'
p2564
I2607
sS'allenthepoet'
p2565
I3399
sS'balance'
p2566
I3400
sS'event'
p2567
I1806
sS'really'
p2568
I288
sS'deals'
p2569
I1776
sS'flower'
p2570
I945
sS'missed'
p2571
I1807
sS'wondered'
p2572
I1808
sS'jaspereatsagyro'
p2573
I2324
sS'schoolplayaudition'
p2574
I3219
sS'robert'
p2575
I751
sS'since'
p2576
I946
sS'marina'
p2577
I2859
sS'easterbonnets'
p2578
I3402
sS'jolly'
p2579
I3403
sS'trainsetsareboring'
p2580
I3404
sS'acting'
p2581
I3405
sS'safety'
p2582
I1155
sS'hood'
p2583
I2303
sS'print'
p2584
I948
sS'shortly'
p2585
I3408
sS'issue'
p2586
I3409
sS'highway'
p2587
I949
sS'dunk'
p2588
I3410
sS'nervously'
p2589
I3411
sS'adayofskiing'
p2590
I3412
sS'bully'
p2591
I1257
sS'dirt'
p2592
I1768
sS'firstday'
p2593
I3413
sS'auditions'
p2594
I2888
sS'friday'
p2595
I1258
sS'horse'
p2596
I644
sS'tutoringjob'
p2597
I3366
sS'inscribed'
p2598
I3415
sS'reason'
p2599
I1264
sS'basketball'
p2600
I396
sS'cookie'
p2601
I1259
sS'disneyland'
p2602
I3417
sS'imagine'
p2603
I3418
sS'put'
p2604
I112
sS'teach'
p2605
I799
sS'phd'
p2606
I4217
sS'beginning'
p2607
I2680
sS'thrown'
p2608
I1810
sS'jeffbreaksdown'
p2609
I3422
sS'owners'
p2610
I1811
sS'deer'
p2611
I1743
sS'legituni'
p2612
I3423
sS'inspection'
p2613
I3840
sS'loaf'
p2614
I4235
sS'computers'
p2615
I1812
sS'sethgetsmarried'
p2616
I3065
sS'houserenovations'
p2617
I3340
sS'scouts'
p2618
I2475
sS'scheduled'
p2619
I3622
sS'infinitejest'
p2620
I3428
sS'balletsurprise'
p2621
I3429
sS'fallen'
p2622
I3430
sS'transitgift'
p2623
I3617
sS'feed'
p2624
I1813
sS'formulas'
p2625
I3431
sS'stepmother'
p2626
I3432
sS'slipped'
p2627
I1814
sS'feel'
p2628
I752
sS'bullies'
p2629
I3434
sS'knocking'
p2630
I1815
sS'number'
p2631
I1801
sS'fancy'
p2632
I1250
sS'traveled'
p2633
I3437
sS'feet'
p2634
I3438
sS'fierce'
p2635
I3439
sS'brave'
p2636
I2689
sS'done'
p2637
I397
sS'fees'
p2638
I2674
sS'bland'
p2639
I3441
sS'miss'
p2640
I488
sS'maple'
p2641
I1261
sS'goingdowntheriver'
p2642
I3443
sS'story'
p2643
I308
sS'temperature'
p2644
I950
sS'jet'
p2645
I3444
sS'script'
p2646
I3445
sS'divorce'
p2647
I1816
sS'5th'
p2648
I3446
sS'paint'
p2649
I3447
sS'silya'
p2650
I4200
sS'wonderful'
p2651
I1004
sS'storm'
p2652
I360
sS'mariatalksaboutmomo'
p2653
I2940
sS'tedbuysacar'
p2654
I3449
sS'hundred'
p2655
I1817
sS'syrup'
p2656
I3450
sS'banana'
p2657
I3451
sS'store'
p2658
I64
sS'lease'
p2659
I3452
sS'paintinglines'
p2660
I3453
sS'selling'
p2661
I754
sS'passed'
p2662
I398
sS'relationship'
p2663
I951
sS'behind'
p2664
I1175
sS'relieved'
p2665
I489
sS'exploded'
p2666
I3455
sS'jamie'
p2667
I1122
sS'park'
p2668
I222
sS'billgoesshopping'
p2669
I3456
sS'luckily'
p2670
I185
sS'part'
p2671
I1818
sS'doctors'
p2672
I1819
sS'off'
p2673
I153
sS'interviewer'
p2674
I3457
sS'convinced'
p2675
I562
sS'tinybugs'
p2676
I3458
sS'surfboard'
p2677
I3459
sS'king'
p2678
I490
sS'grocery'
p2679
I361
sS'legs'
p2680
I1263
sS'gotten'
p2681
I1820
sS'grey'
p2682
I3460
sS'youth'
p2683
I3461
sS'thecouple'
p2684
I3462
sS'greg'
p2685
I773
sS'supposed'
p2686
I289
sS'insulted'
p2687
I3463
sS'outdoors'
p2688
I3464
sS'toward'
p2689
I3466
sS'treated'
p2690
I1821
sS'funnyaccent'
p2691
I3467
sS'dana'
p2692
I1265
sS'booth'
p2693
I1266
sS'technician'
p2694
I4319
sS'deciding'
p2695
I3468
sS'gastricbypasssurgery'
p2696
I3469
sS'fredwearssandals'
p2697
I2707
sS'picked'
p2698
I563
sS"lorrie'sbadday"
p2699
I2849
sS'curling'
p2700
I3945
sS'seth'
p2701
I3470
sS'kissingbooth'
p2702
I3471
sS'disgusting'
p2703
I4138
sS'recital'
p2704
I3472
sS'juice'
p2705
I755
sS'graffiti'
p2706
I3473
sS'lindagetsanewfriend'
p2707
I3474
sS'cleaned'
p2708
I646
sS'aged'
p2709
I3475
sS'theprotest'
p2710
I3476
sS'karl'
p2711
I3477
sS'sell'
p2712
I564
sS'mountain'
p2713
I952
sS'drunk'
p2714
I4052
sS'dancing'
p2715
I3478
sS"kyle'snewbike"
p2716
I3479
sS'self'
p2717
I1267
sS'couch'
p2718
I1268
sS'lit'
p2719
I3480
sS'also'
p2720
I330
sS'build'
p2721
I953
sS'jessie'
p2722
I3482
sS'finding'
p2723
I3483
sS'birthdaypresent'
p2724
I3484
sS'thenavy'
p2725
I3485
sS'liz'
p2726
I1269
sS'play'
p2727
I82
sS'towards'
p2728
I756
sS'bottle'
p2729
I3060
sS'needle'
p2730
I3488
sS'serve'
p2731
I1634
sS'eggs'
p2732
I757
sS'awonderfulday'
p2733
I2417
sS'reach'
p2734
I954
sS'unused'
p2735
I3490
sS'most'
p2736
I565
sS'virus'
p2737
I1826
sS'plan'
p2738
I3491
sS'eaten'
p2739
I1889
sS'tips'
p2740
I2125
sS'services'
p2741
I2679
sS'accepting'
p2742
I3495
sS'kay'
p2743
I758
sS'extremely'
p2744
I441
sS'flagfootball'
p2745
I3496
sS'refrigerator'
p2746
I3497
sS'78'
p2747
I3498
sS'rebeccaneedsshoes'
p2748
I3499
sS'bug'
p2749
I1390
sS'lessons'
p2750
I3857
sS'windows'
p2751
I1727
sS'sometimes'
p2752
I3767
sS'cover'
p2753
I3501
sS'dentist'
p2754
I759
sS'clean'
p2755
I442
sS'startingschool'
p2756
I3503
sS'physics'
p2757
I3504
sS'stevensolveshismoneytroubles'
p2758
I3505
sS'lying'
p2759
I3506
sS'thomas'
p2760
I1828
sS'hyper'
p2761
I3507
sS'golf'
p2762
I362
sS'somewhat'
p2763
I1478
sS'gold'
p2764
I767
sS'swelling'
p2765
I3508
sS'huddled'
p2766
I3827
sS'league'
p2767
I1830
sS'publisher'
p2768
I3291
sS'anoldcarkeepsongoing'
p2769
I3509
sS'brody'
p2770
I3510
sS'karenlosesherkitty'
p2771
I3511
sS'businesses'
p2772
I3512
sS'carefully'
p2773
I491
sS'melody'
p2774
I1921
sS'fine'
p2775
I1831
sS'find'
p2776
I86
sS'blender'
p2777
I3514
sS'giant'
p2778
I956
sS'believe'
p2779
I3515
sS'laurashavesherhead'
p2780
I3516
sS'nervous'
p2781
I123
sS'scooter'
p2782
I3517
sS'datenight'
p2783
I3518
sS'rotten'
p2784
I1832
sS'failed'
p2785
I1833
sS'randy'
p2786
I1834
sS'fiend'
p2787
I3519
sS'knit'
p2788
I3520
sS'8'
p2789
I3521
sS'luis'
p2790
I3522
sS'sleepingproblems'
p2791
I3523
sS'his'
p2792
I13
sS'hit'
p2793
I399
sS'therefore'
p2794
I3524
sS'triple'
p2795
I3627
sS'meanwhile'
p2796
I3525
sS'luke'
p2797
I1270
sS'express'
p2798
I1836
sS'sunny'
p2799
I1271
sS'kind'
p2800
I3526
sS'trees'
p2801
I957
sS'cheaper'
p2802
I1837
sS"jeremy'scareer"
p2803
I3527
sS'famous'
p2804
I1838
sS'saltypeople'
p2805
I3528
sS'hid'
p2806
I1839
sS'preparing'
p2807
I647
sS'basement'
p2808
I958
sS'during'
p2809
I959
sS'polaroid'
p2810
I3529
sS'him'
p2811
I44
sS'marblefloors'
p2812
I3530
sS'dustin'
p2813
I3531
sS'keisha'
p2814
I4101
sS'roles'
p2815
I2151
sS'paddling'
p2816
I3534
sS'cry'
p2817
I760
sS'theamazon'
p2818
I3535
sS'remove'
p2819
I3536
sS'investigate'
p2820
I1840
sS'activity'
p2821
I3537
sS'themissingwallet'
p2822
I3538
sS'corgi'
p2823
I3539
sS'6weekcourse'
p2824
I3540
sS'river'
p2825
I400
sS'guessed'
p2826
I2627
sS'employer'
p2827
I3541
sS'wrote'
p2828
I492
sS'sew'
p2829
I3542
sS'scenery'
p2830
I1272
sS'set'
p2831
I331
sS'art'
p2832
I3543
sS'dump'
p2833
I1273
sS'trackmeet'
p2834
I3544
sS'throwing'
p2835
I1274
sS'enabled'
p2836
I3545
sS'carrying'
p2837
I3546
sS'uses'
p2838
I2291
sS'aaronplaysrugby'
p2839
I3547
sS'lion'
p2840
I1356
sS'defense'
p2841
I3548
sS'leslie'
p2842
I1842
sS'are'
p2843
I259
sS'sea'
p2844
I3549
sS'close'
p2845
I648
sS'bark'
p2846
I3550
sS'angie'
p2847
I3551
sS'arm'
p2848
I960
sS'allie'
p2849
I961
sS'feared'
p2850
I3552
sS'project'
p2851
I3161
sS'mario'
p2852
I3723
sS'spirits'
p2853
I3554
sS'expert'
p2854
I3555
sS'pictures'
p2855
I493
sS'currently'
p2856
I3556
sS'burner'
p2857
I3557
sS'ups'
p2858
I3558
sS'fans'
p2859
I1843
sS'determined'
p2860
I258
sS'hayley'
p2861
I3559
sS'distraught'
p2862
I3146
sS'burned'
p2863
I3561
sS'jasmin'
p2864
I3562
sS'clerk'
p2865
I3563
sS'foreignfood'
p2866
I3564
sS'europe'
p2867
I1844
sS'nailsalon'
p2868
I3565
sS'rosie'
p2869
I1276
sS'recently'
p2870
I401
sS'missing'
p2871
I962
sS'initially'
p2872
I3566
sS'intimidated'
p2873
I3567
sS'sold'
p2874
I649
sS'attention'
p2875
I650
sS'mailbox'
p2876
I1845
sS'thelilypad'
p2877
I2641
sS'spray'
p2878
I3569
sS'renewed'
p2879
I3570
sS'tyler'
p2880
I3952
sS'ike'
p2881
I2004
sS'incredible'
p2882
I4226
sS'pickup'
p2883
I4099
sS'both'
p2884
I274
sS'c'
p2885
I1846
sS'shill'
p2886
I2412
sS'last'
p2887
I251
sS'hesitant'
p2888
I1277
sS'restaurant'
p2889
I192
sS'fiance'
p2890
I1848
sS'annual'
p2891
I1849
sS'yolanda'
p2892
I3317
sS'mcdonald'
p2893
I3575
sS'became'
p2894
I1278
sS'campfire'
p2895
I4275
sS'annie'
p2896
I963
sS'forgotten'
p2897
I1279
sS'let'
p2898
I994
sS'deserved'
p2899
I4345
sS'whole'
p2900
I290
sS'finds'
p2901
I566
sS'patty'
p2902
I1850
sS'load'
p2903
I3576
sS'liked'
p2904
I124
sS'thelaptop'
p2905
I3577
sS'danced'
p2906
I1851
sS'agoraphobia'
p2907
I3578
sS'jeff'
p2908
I761
sS'battery'
p2909
I3579
sS'sweet'
p2910
I1645
sS'community'
p2911
I1280
sS'goldfish'
p2912
I1611
sS'dancer'
p2913
I3583
sS'likes'
p2914
I567
sS'chloe'
p2915
I3584
sS'church'
p2916
I1037
sS'slots'
p2917
I3585
sS'complied'
p2918
I1852
sS'expensive'
p2919
I1281
sS'belt'
p2920
I3586
sS'tonya'
p2921
I3587
sS'dogsitting'
p2922
I3588
sS'raise'
p2923
I1853
sS'dogwalker'
p2924
I4049
sS'monthly'
p2925
I3589
sS'create'
p2926
I1282
sS'political'
p2927
I1854
sS'due'
p2928
I3590
sS'mikey'
p2929
I3591
sS'strategy'
p2930
I3342
sS'runner'
p2931
I3593
sS'differentopinions'
p2932
I3130
sS'ireland'
p2933
I3595
sS'stomping'
p2934
I3596
sS'collected'
p2935
I1283
sS'askforit'
p2936
I3597
sS'meeting'
p2937
I1855
sS'woke'
p2938
I291
sS'walter'
p2939
I3598
sS'blankets'
p2940
I3175
sS'lived'
p2941
I1284
sS'flight'
p2942
I1285
sS'champion'
p2943
I3600
sS'fire'
p2944
I1286
sS'caleb'
p2945
I2323
sS'wheeler'
p2946
I1856
sS'gas'
p2947
I402
sS'themovietheater'
p2948
I3601
sS'thekingwins'
p2949
I3602
sS'else'
p2950
I966
sS'lotsofexerciseisneeded'
p2951
I3603
sS'fund'
p2952
I3604
sS'whatever'
p2953
I3605
sS'gregseesalion'
p2954
I3606
sS'lives'
p2955
I967
sS'whitney'
p2956
I3607
sS'ricemilk'
p2957
I3608
sS'prices'
p2958
I3609
sS'despite'
p2959
I1372
sS'instructor'
p2960
I1857
sS'stolen'
p2961
I1288
sS'look'
p2962
I145
sS'slyly'
p2963
I3611
sS'frozen'
p2964
I3612
sS'ski'
p2965
I2033
sS'straight'
p2966
I3614
sS'bill'
p2967
I172
sS'budget'
p2968
I1289
sS'lonegirl'
p2969
I3615
sS'rope'
p2970
I3616
sS'warehouse'
p2971
I3367
sS'while'
p2972
I136
sS'replaced'
p2973
I969
sS'match'
p2974
I1558
sS'fun'
p2975
I193
sS'thepatrol'
p2976
I3620
sS'guide'
p2977
I1859
sS'cages'
p2978
I3621
sS'pack'
p2979
I1860
sS'real'
p2980
I1888
sS'larger'
p2981
I1861
sS'hoping'
p2982
I3623
sS'heroically'
p2983
I3624
sS'violently'
p2984
I3625
sS'billsbadluck'
p2985
I3626
sS'darrell'
p2986
I1862
sS'stubbornly'
p2987
I2180
sS'ready'
p2988
I212
sS'rid'
p2989
I3628
sS'coldsoup'
p2990
I3629
sS'anymore'
p2991
I332
sS'shuttered'
p2992
I3631
sS'rules'
p2993
I1718
sS'copying'
p2994
I3632
sS'grand'
p2995
I1291
sS'9'
p2996
I3633
sS'sammy'
p2997
I4268
sS'evidence'
p2998
I1574
sS'higher'
p2999
I3634
sS'distracted'
p3000
I4018
sS'used'
p3001
I762
sS'classmates'
p3002
I1293
sS'theambulance'
p3003
I3635
sS'ratings'
p3004
I3979
sS'flooded'
p3005
I1863
sS'assignment'
p3006
I3637
sS'thelottery'
p3007
I3638
sS'bobchangeshisdiet'
p3008
I3865
sS'yesterday'
p3009
I652
sS'grilling'
p3010
I3639
sS'stacy'
p3011
I970
sS'moment'
p3012
I1294
sS'walmart'
p3013
I1865
sS'moving'
p3014
I629
sS'plugs'
p3015
I3640
sS'janice'
p3016
I1295
sS'consulted'
p3017
I3772
sS'thesnowstorm'
p3018
I3641
sS'plate'
p3019
I3642
sS'dark'
p3020
I1102
sS'task'
p3021
I3644
sS'picky'
p3022
I3645
sS'older'
p3023
I654
sS'stephanie'
p3024
I1931
sS'cheek'
p3025
I1296
sS'chickens'
p3026
I3647
sS'spent'
p3027
I378
sS'grind'
p3028
I2328
sS'person'
p3029
I971
sS'cheer'
p3030
I3649
sS'edge'
p3031
I1297
sS'puppyrace'
p3032
I3650
sS'kelly'
p3033
I972
sS'organization'
p3034
I1868
sS'spend'
p3035
I1869
sS'soaked'
p3036
I3652
sS'listening'
p3037
I3089
sS'thenewbed'
p3038
I3653
sS'leaking'
p3039
I1825
sS'simy'
p3040
I3654
sS'quarters'
p3041
I3656
sS'nightcravings'
p3042
I3657
sS'using'
p3043
I1870
sS'ad'
p3044
I3179
sS'retired'
p3045
I714
sS'</s>'
p3046
I3
sS'injuries'
p3047
I3659
sS'letting'
p3048
I1472
sS'cut'
p3049
I1298
sS'$'
p3050
I973
sS'tablet'
p3051
I3660
sS'cup'
p3052
I655
sS'fiancee'
p3053
I3661
sS'disappointed'
p3054
I545
sS'workers'
p3055
I3662
sS'channels'
p3056
I3663
sS'kissed'
p3057
I2652
sS'exercising'
p3058
I1873
sS'source'
p3059
I763
sS'parents'
p3060
I146
sS'siblings'
p3061
I3236
sS'crying'
p3062
I1300
sS"jasonwouldn'tgetajob"
p3063
I3666
sS'easter'
p3064
I2470
sS'excited'
p3065
I57
sS'surprised'
p3066
I333
sS'niece'
p3067
I1093
sS'marco'
p3068
I3668
sS'vendor'
p3069
I3669
sS'doors'
p3070
I3670
sS'emergency'
p3071
I1301
sS'big'
p3072
I167
sS'couple'
p3073
I364
sS'jerked'
p3074
I2497
sS'pig'
p3075
I4333
sS'game'
p3076
I113
sS'farmfresheggs'
p3077
I3673
sS'marcy'
p3078
I1302
sS'towel'
p3079
I3674
sS'bit'
p3080
I1874
sS'projects'
p3081
I3675
sS'formal'
p3082
I1875
sS'd'
p3083
I365
sS'shaped'
p3084
I3676
sS'rides'
p3085
I3052
sS'message'
p3086
I3174
sS'resorted'
p3087
I3679
sS'ignore'
p3088
I1548
sS'continue'
p3089
I3681
sS'scrabblefriends'
p3090
I3682
sS'crawled'
p3091
I3683
sS'popular'
p3092
I1876
sS'theopera'
p3093
I3095
sS'browniethepekingese'
p3094
I4361
sS'sketch'
p3095
I3686
sS'google'
p3096
I3687
sS'partying'
p3097
I2034
sS'often'
p3098
I404
sS'brakes'
p3099
I3689
sS'newfriend'
p3100
I2839
sS'absolutely'
p3101
I3691
sS'some'
p3102
I134
sS'back'
p3103
I147
sS'bounce'
p3104
I1877
sS'understood'
p3105
I1878
sS'bouncy'
p3106
I2617
sS'experienced'
p3107
I1303
sS'candy'
p3108
I1062
sS'sight'
p3109
I3693
sS'mirror'
p3110
I1225
sS'curious'
p3111
I1879
sS'brent'
p3112
I3696
sS'electric'
p3113
I3487
sS'delivered'
p3114
I3698
sS'ursula'
p3115
I3699
sS'swallowed'
p3116
I3700
sS'jewelry'
p3117
I1880
sS'pet'
p3118
I217
sS'decision'
p3119
I275
sS'shall'
p3120
I3701
sS'firstcreditcard'
p3121
I2583
sS'per'
p3122
I1304
sS'prop'
p3123
I3702
sS'flashed'
p3124
I3703
sS'charliehorse'
p3125
I3704
sS'pen'
p3126
I1305
sS'lamarrio'
p3127
I1898
sS'thedishes'
p3128
I3706
sS'sweetwine'
p3129
I2670
sS'haileygoesonvacation'
p3130
I3708
sS'dating'
p3131
I1881
sS'eater'
p3132
I1882
sS'anna'
p3133
I656
sS'laughing'
p3134
I3234
sS'be'
p3135
I43
sS'swiftly'
p3136
I3489
sS'eating'
p3137
I160
sS'remembered'
p3138
I977
sS'martin'
p3139
I1884
sS'fed'
p3140
I995
sS'refused'
p3141
I1306
sS'outdoor'
p3142
I3711
sS'step'
p3143
I1131
sS'bested'
p3144
I3713
sS'chanting'
p3145
I3714
sS'stew'
p3146
I3715
sS'twenty'
p3147
I3427
sS'marcusbuyskhakis'
p3148
I3100
sS'lottery'
p3149
I1885
sS'carol'
p3150
I3718
sS'by'
p3151
I96
sS'elderly'
p3152
I2610
sS'mistrust'
p3153
I3719
sS'cranked'
p3154
I2742
sS"frank'sbirthday"
p3155
I3721
sS'friendsinlowplaces'
p3156
I3722
sS'volunteering'
p3157
I1138
sS'netflix'
p3158
I1823
sS'dogparklove'
p3159
I2762
sS'adayattheraces'
p3160
I2757
sS'graduation'
p3161
I1886
sS'audible'
p3162
I3724
sS'gregwinsthegame'
p3163
I3725
sS'greets'
p3164
I2782
sS'positive'
p3165
I2731
sS'jasonbecomesalawyer'
p3166
I2790
sS'missfussy'
p3167
I3729
sS'shiny'
p3168
I3730
sS'thedress'
p3169
I1618
sS'silence'
p3170
I978
sS'repair'
p3171
I1146
sS'jimmy'
p3172
I657
sS'joshgetsawarning'
p3173
I3167
sS'garbage'
p3174
I1308
sS'into'
p3175
I203
sS'sandra'
p3176
I3493
sS'democrat'
p3177
I3732
sS'theroommate'
p3178
I3494
sS'steven'
p3179
I3734
sS'lesson'
p3180
I979
sS'chirping'
p3181
I3735
sS'unexpectedsquirrel'
p3182
I3736
sS'extrafruit'
p3183
I3737
sS'katie'
p3184
I1151
sS'crowdsourcing'
p3185
I2734
sS'marie'
p3186
I3741
sS"clint'scareer"
p3187
I3742
sS'valued'
p3188
I3383
sS'beers'
p3189
I2751
sS'frankdoeshandstands'
p3190
I3744
sS'live'
p3191
I2901
sS'fast'
p3192
I366
sS'longday'
p3193
I3746
sS'suit'
p3194
I3747
sS'forward'
p3195
I3748
sS'bored'
p3196
I658
sS'belonged'
p3197
I3749
sS'spat'
p3198
I3205
sS'opponent'
p3199
I3751
sS'mountains'
p3200
I1166
sS'himself'
p3201
I406
sS'bingewatching'
p3202
I3684
sS'poster'
p3203
I3754
sS'relaxed'
p3204
I1890
sS'theswimmeet'
p3205
I3755
sS'pastor'
p3206
I1309
sS'hoped'
p3207
I3756
sS'boys'
p3208
I1891
sS'pinballwizard'
p3209
I3757
sS'larry'
p3210
I569
sS'authority'
p3211
I2038
sS'filed'
p3212
I1310
sS'line'
p3213
I292
sS'brokenhearted'
p3214
I3758
sS'junior'
p3215
I3759
sS'raising'
p3216
I1893
sS'ahelpinghand'
p3217
I3738
sS'newheadphones'
p3218
I3760
sS'talents'
p3219
I1569
sS'up'
p3220
I49
sS'us'
p3221
I765
sS'mobile'
p3222
I1827
sS'thehalfcourtshot'
p3223
I3764
sS'called'
p3224
I218
sS'baldwin'
p3225
I3426
sS'yelled'
p3226
I2997
sS'bell'
p3227
I1312
sS'newneighbors'
p3228
I3815
sS'ordered'
p3229
I367
sS'chad'
p3230
I659
sS"archerydoesn'tfallfarfromthetree"
p3231
I3568
sS'lulu'
p3232
I3769
sS'``'
p3233
I2739
sS'single'
p3234
I588
sS'warning'
p3235
I980
sS'donated'
p3236
I3224
sS'lawns'
p3237
I3775
sS'cafe'
p3238
I1315
sS'ishouldhavecheated'
p3239
I4174
sS'stephen'
p3240
I3777
sS'rainbow'
p3241
I1896
sS'codes'
p3242
I3778
sS'lemon'
p3243
I3779
sS'johnnygoesfishing'
p3244
I3780
sS'tara'
p3245
I3781
sS'pat'
p3246
I3782
sS'fears'
p3247
I1897
sS'sodamachine'
p3248
I2832
sS'application'
p3249
I660
sS'jenniferwassick'
p3250
I3784
sS'thehurricane'
p3251
I3785
sS'becomes'
p3252
I1502
sS'department'
p3253
I1899
sS'kira'
p3254
I981
sS"theo'sfearofheights"
p3255
I3787
sS'nice'
p3256
I334
sS'draw'
p3257
I3789
sS'thepie'
p3258
I3790
sS'scrub'
p3259
I1900
sS'thanksgivingwiththeinlaws'
p3260
I3791
sS'problems'
p3261
I1901
sS'pretended'
p3262
I1316
sS'prepared'
p3263
I661
sS'helping'
p3264
I1872
sS'smiled'
p3265
I3793
sS'posters'
p3266
I1902
sS'desert'
p3267
I766
sS'ago'
p3268
I570
sS'lane'
p3269
I1903
sS'land'
p3270
I3166
sS'happier'
p3271
I1904
sS'disbelief'
p3272
I4270
sS'vice'
p3273
I3794
sS'twoshades'
p3274
I3795
sS'age'
p3275
I1209
sS'hitandrun'
p3276
I2830
sS'walked'
p3277
I238
sS'bee'
p3278
I4155
sS'hoarder'
p3279
I4272
sS'2001'
p3280
I3193
sS'2006'
p3281
I3801
sS'roy'
p3282
I3802
sS'walker'
p3283
I1906
sS'fresh'
p3284
I443
sS"josh'sbadday"
p3285
I3803
sS'requires'
p3286
I3804
sS'having'
p3287
I239
sS'once'
p3288
I1751
sS'essay'
p3289
I3806
sS'amish'
p3290
I3807
sS'jason'
p3291
I1318
sS'scratch'
p3292
I3808
sS'results'
p3293
I1319
sS'zoey'
p3294
I3809
sS'steve'
p3295
I1144
sS'desserts'
p3296
I3811
sS'weatherman'
p3297
I3251
sS'gang'
p3298
I662
sS'go'
p3299
I48
sS'particularly'
p3300
I3813
sS'adjustment'
p3301
I3814
sS'kate'
p3302
I982
sS'seemed'
p3303
I983
sS'rhonda'
p3304
I1907
sS'simon'
p3305
I3816
sS'saleswoman'
p3306
I1908
sS'stunned'
p3307
I1829
sS'thedentist'
p3308
I3817
sS'concerned'
p3309
I984
sS'fenced'
p3310
I3818
sS'young'
p3311
I219
sS'send'
p3312
I3819
sS'nose'
p3313
I3820
sS'goodbook'
p3314
I3821
sS'maddie'
p3315
I3849
sS'does'
p3316
I3822
sS'charity'
p3317
I3823
sS'theburglar'
p3318
I3651
sS'friendly'
p3319
I1910
sS'sent'
p3320
I495
sS'garden'
p3321
I985
sS'ukulele'
p3322
I1911
sS'ophelia'
p3323
I1912
sS'gina'
p3324
I1913
sS'paddled'
p3325
I3825
sS'outdoorsy'
p3326
I3826
sS'wave'
p3327
I2868
sS'traveldreams'
p3328
I3828
sS'thefundraiser'
p3329
I3829
sS'wishes'
p3330
I2995
sS'practicing'
p3331
I986
sS'surgeon'
p3332
I1423
sS'continued'
p3333
I987
sS'thekitty'
p3334
I3824
sS'entire'
p3335
I663
sS'joec'
p3336
I3832
sS'excruciating'
p3337
I3833
sS'transmission'
p3338
I3834
sS'experiencing'
p3339
I1320
sS'notes'
p3340
I940
sS'shock'
p3341
I3836
sS'michael'
p3342
I1321
sS'ryan'
p3343
I988
sS'potofgold'
p3344
I3118
sS'try'
p3345
I140
sS'assignments'
p3346
I1322
sS'race'
p3347
I768
sS'thedelay'
p3348
I3837
sS'jasminperseveres'
p3349
I4280
sS'thesnowman'
p3350
I3838
sS'dogproblem'
p3351
I3839
sS'snails'
p3352
I3425
sS'challenge'
p3353
I3890
sS'joey'
p3354
I572
sS'batter'
p3355
I3841
sS'someday'
p3356
I1916
sS'cap'
p3357
I1917
sS'carter'
p3358
I1918
sS'bleeding'
p3359
I3116
sS'thecarride'
p3360
I3843
sS'carly'
p3361
I1919
sS'scientist'
p3362
I3844
sS'boots'
p3363
I1323
sS'waking'
p3364
I1920
sS'jump'
p3365
I664
sS'carla'
p3366
I3845
sS'charliehelpspaint'
p3367
I4282
sS'video'
p3368
I309
sS'traveling'
p3369
I989
sS'uncomfortable'
p3370
I445
sS'reunion'
p3371
I990
sS'thetree'
p3372
I3846
sS'spaghetti'
p3373
I573
sS'hopped'
p3374
I3513
sS'pianorecital'
p3375
I3847
sS'nothing'
p3376
I3733
sS'plays'
p3377
I1922
sS'business'
p3378
I770
sS'donut'
p3379
I2337
sS'giving'
p3380
I1324
sS'vampire'
p3381
I1924
sS'practices'
p3382
I3850
sS'cell'
p3383
I3851
sS'paying'
p3384
I3852
sS'waiting'
p3385
I665
sS'racetovictory'
p3386
I3853
sS'apologize'
p3387
I3982
sS'<padding>'
p3388
I0
sS'electricity'
p3389
I2079
sS'rotted'
p3390
I3854
sS'theputt'
p3391
I3855
sS'bird'
p3392
I991
sS"tom'slifeinohio"
p3393
I3856
sS'body'
p3394
I446
sS'toast'
p3395
I2108
sS'led'
p3396
I1925
sS'chose'
p3397
I1926
sS'degree'
p3398
I771
sS'leg'
p3399
I992
sS'gathered'
p3400
I1927
sS'leo'
p3401
I993
sS'believed'
p3402
I1397
sS'focused'
p3403
I964
sS'conceited'
p3404
I3858
sS'others'
p3405
I772
sS'sing'
p3406
I965
sS'thebaby'
p3407
I3860
sS'joins'
p3408
I3861
sS'great'
p3409
I55
sS'fredspillspaint'
p3410
I3863
sS'receive'
p3411
I1929
sS'pre-school'
p3412
I3582
sS'casino'
p3413
I1327
sS'later'
p3414
I535
sS'survey'
p3415
I1328
sS'townspeople'
p3416
I2320
sS'themine'
p3417
I2919
sS'makes'
p3418
I1720
sS'control'
p3419
I1943
sS'named'
p3420
I666
sS'panicked'
p3421
I1932
sS'busking'
p3422
I3867
sS'apple'
p3423
I1329
sS'clark'
p3424
I3868
sS'admired'
p3425
I1933
sS'pitch'
p3426
I4127
sS'win'
p3427
I1330
sS'pizzalasagna'
p3428
I3869
sS'names'
p3429
I3870
sS'apply'
p3430
I1935
sS'singing'
p3431
I3871
sS'announced'
p3432
I1402
sS'standing'
p3433
I3873
sS'use'
p3434
I276
sS'cheered'
p3435
I764
sS'from'
p3436
I88
sS'badkitten'
p3437
I4305
sS'mowing'
p3438
I3875
sS'ferris'
p3439
I3876
sS'frog'
p3440
I1936
sS'next'
p3441
I130
sS'few'
p3442
I194
sS'camera'
p3443
I574
sS'crab'
p3444
I1937
sS'vehicle'
p3445
I1938
sS'themselves'
p3446
I996
sS'hiding'
p3447
I4291
sS'burst'
p3448
I1682
sS'sort'
p3449
I1939
sS'charcoal'
p3450
I3877
sS'excitedly'
p3451
I3878
sS'upcoming'
p3452
I1331
sS'porch'
p3453
I774
sS'started'
p3454
I240
sS'halloween'
p3455
I1332
sS'calling'
p3456
I4121
sS'musician'
p3457
I1333
sS'kiosk'
p3458
I3879
sS'about'
p3459
I41
sS'norefunds'
p3460
I3880
sS'trail'
p3461
I1334
sS'train'
p3462
I998
sS'theitinerary'
p3463
I3881
sS'joeandsantaclaus'
p3464
I3882
sS'baby'
p3465
I260
sS'preoccupied'
p3466
I3883
sS'newjeans'
p3467
I3884
sS'theheat'
p3468
I3885
sS"jane'spainting"
p3469
I4004
sS'casserole'
p3470
I3886
sS'subscription'
p3471
I1940
sS'customer'
p3472
I3887
sS'high'
p3473
I407
sS'frequently'
p3474
I3486
sS'balls'
p3475
I3830
sS'animals'
p3476
I1000
sS'this'
p3477
I1001
sS'ride'
p3478
I335
sS'clients'
p3479
I1002
sS'blooddrive'
p3480
I3891
sS'creepy'
p3481
I1941
sS'crossed'
p3482
I3892
sS'thin'
p3483
I1942
sS'meet'
p3484
I447
sS'dropped'
p3485
I1626
sS'point'
p3486
I1774
sS'slid'
p3487
I3894
sS'playinginaband'
p3488
I3895
sS'patrol'
p3489
I3896
sS'bent'
p3490
I3897
sS'snacks'
p3491
I775
sS'thebrokenplate'
p3492
I3710
sS'discussed'
p3493
I3899
sS'allowed'
p3494
I3900
sS'rode'
p3495
I776
sS'lizard'
p3496
I3901
sS'studies'
p3497
I3902
sS'pieces'
p3498
I3903
sS'escaped'
p3499
I999
sS'professor'
p3500
I1944
sS'allnighter'
p3501
I1945
sS'tag'
p3502
I1003
sS'pulling'
p3503
I3904
sS'something'
p3504
I496
sS'slip'
p3505
I1946
sS'sought'
p3506
I3905
sS'sunglasses'
p3507
I3739
sS'tan'
p3508
I1336
sS'impressed'
p3509
I3906
sS'badmakeup'
p3510
I3907
sS'lamb'
p3511
I3908
sS'practical'
p3512
I3134
sS'sip'
p3513
I3909
sS'memorize'
p3514
I3910
sS'sit'
p3515
I1005
sS'clothing'
p3516
I1948
sS'six'
p3517
I1007
sS'lesley'
p3518
I3912
sS'arrangement'
p3519
I3913
sS'nationalparks'
p3520
I3914
sS'brian'
p3521
I3915
sS'sia'
p3522
I1949
sS'amishcountry'
p3523
I3916
sS'badheadache'
p3524
I2203
sS'animal'
p3525
I448
sS'chessmaster'
p3526
I3918
sS'instead'
p3527
I449
sS'struggled'
p3528
I3776
sS'comedy'
p3529
I1950
sS'batting'
p3530
I3920
sS'airline'
p3531
I2867
sS'butteredbread'
p3532
I3922
sS'alicia'
p3533
I2958
sS'blocks'
p3534
I3924
sS'attend'
p3535
I777
sS'farm'
p3536
I3925
sS'watch'
p3537
I154
sS'thesoup'
p3538
I3926
sS'collection'
p3539
I1006
sS'bothered'
p3540
I3927
sS'feelingscrush'
p3541
I3928
sS'paintball'
p3542
I1951
sS'bench'
p3543
I3929
sS'wrist'
p3544
I3930
sS'ortizatthermv'
p3545
I3931
sS'account'
p3546
I3888
sS'efficiently'
p3547
I1689
sS'realized'
p3548
I336
sS'drop'
p3549
I1952
sS'daycare'
p3550
I3932
sS'light'
p3551
I575
sS'counter'
p3552
I1953
sS'bakery'
p3553
I1954
sS'realizes'
p3554
I1338
sS'nancy'
p3555
I1339
sS"jaime'spassion"
p3556
I3933
sS'furious'
p3557
I778
sS'watermelon'
p3558
I1500
sS'addiction'
p3559
I3934
sS'lined'
p3560
I1341
sS'discussion'
p3561
I2775
sS'theletter'
p3562
I3936
sS'boxing'
p3563
I3911
sS'poor'
p3564
I4261
sS'firstjob'
p3565
I3937
sS'move'
p3566
I293
sS'workingout'
p3567
I3938
sS'meter'
p3568
I3939
sS'joanne'
p3569
I1342
sS'weirdly'
p3570
I3940
sS'thedeepend'
p3571
I3941
sS'costume'
p3572
I1343
sS'knocks'
p3573
I2392
sS'mentioned'
p3574
I3943
sS'candicediscoverssoftball'
p3575
I3944
sS'bunch'
p3576
I1998
sS'perfect'
p3577
I368
sS'rubbergarden'
p3578
I3946
sS'negotiated'
p3579
I3947
sS'thesteakhouse'
p3580
I3948
sS'chosen'
p3581
I3949
sS'll'
p3582
I1344
sS'winning'
p3583
I1345
sS'kindergarten'
p3584
I3951
sS'thevacation'
p3585
I3283
sS'degrees'
p3586
I2009
sS'button'
p3587
I3835
sS'thewolf'
p3588
I3955
sS'jody'
p3589
I1955
sS'hobby'
p3590
I1894
sS'holiday'
p3591
I2580
sS'90210'
p3592
I3958
sS'lostphonesignal'
p3593
I3433
sS'dad'
p3594
I261
sS'lennywinsbig'
p3595
I3960
sS'crash'
p3596
I3961
sS'tryingteas'
p3597
I2515
sS'ninety'
p3598
I3963
sS'flour'
p3599
I3964
sS'dan'
p3600
I779
sS'practice'
p3601
I780
sS'earn'
p3602
I1503
sS'flew'
p3603
I1956
sS'dock'
p3604
I3965
sS'snake'
p3605
I3966
sS'kiss'
p3606
I3967
sS'hands'
p3607
I3968
sS'front'
p3608
I1378
sS'republican'
p3609
I3970
sS'cage'
p3610
I667
sS'day'
p3611
I27
sS'preschool'
p3612
I3971
sS'friendlyskies'
p3613
I3533
sS'skillset'
p3614
I2364
sS'gamersneedlovetoo'
p3615
I3973
sS'toddler'
p3616
I1957
sS'tram'
p3617
I1958
sS'warned'
p3618
I3974
sS'university'
p3619
I1959
sS'20'
p3620
I3373
sS'sneezed'
p3621
I3975
sS'sniffing'
p3622
I3976
sS'billy'
p3623
I497
sS'slipping'
p3624
I3977
sS'trap'
p3625
I3978
sS'crossing'
p3626
I781
sS'bills'
p3627
I782
sS'tray'
p3628
I1960
sS'protein'
p3629
I3037
sS'glasses'
p3630
I1347
sS'latefee'
p3631
I3980
sS'doing'
p3632
I369
sS'adventure'
p3633
I2087
sS'joyce'
p3634
I2380
sS'pantry'
p3635
I3983
sS'fractions'
p3636
I3984
sS'society'
p3637
I3985
sS'books'
p3638
I1009
sS'our'
p3639
I195
sS'80'
p3640
I3986
sS'billyblowshiscarup'
p3641
I3987
sS'special'
p3642
I668
sS'out'
p3643
I31
sS'rex'
p3644
I3989
sS"'"
p3645
I22
sS'entertainment'
p3646
I3991
sS'arriving'
p3647
I3992
sS'unclearhatred'
p3648
I2773
sS'defend'
p3649
I1349
sS'milofindsanunlikelyfriend'
p3650
I3993
sS'mailfanatic'
p3651
I4224
sS'furiously'
p3652
I3994
sS'ricky'
p3653
I1010
sS'almostarrestedatchipotle'
p3654
I3995
sS'mate'
p3655
I3996
sS'freshman'
p3656
I3997
sS'playground'
p3657
I1961
sS'hilarious'
p3658
I3998
sS'electronics'
p3659
I3999
sS'primped'
p3660
I4000
sS'red'
p3661
I498
sS'therace'
p3662
I4001
sS'afford'
p3663
I4002
sS"david'sgift"
p3664
I4003
sS'harold'
p3665
I1428
sS'umbrella'
p3666
I2115
sS'approached'
p3667
I812
sS'stenographer'
p3668
I4005
sS'frank'
p3669
I669
sS'rememberthemouse'
p3670
I4006
sS'molly'
p3671
I4007
sS'swimlessons'
p3672
I4008
sS'completely'
p3673
I1963
sS'jill'
p3674
I310
sS'vacations'
p3675
I4009
sS'dumpster'
p3676
I1964
sS'doubles'
p3677
I4010
sS'early'
p3678
I327
sS'craving'
p3679
I4012
sS'additional'
p3680
I4013
sS'scary'
p3681
I4014
sS'yard'
p3682
I783
sS'her'
p3683
I15
sS'mesmerized'
p3684
I670
sS'rainydaykitties'
p3685
I2992
sS'could'
p3686
I125
sS'florida'
p3687
I577
sS'dvd'
p3688
I4015
sS'horace'
p3689
I1965
sS'david'
p3690
I311
sS'conversation'
p3691
I1012
sS'produce'
p3692
I878
sS'explored'
p3693
I3436
sS'austin'
p3694
I4016
sS'vegetables'
p3695
I821
sS'anita'
p3696
I1350
sS'jackandthecat'
p3697
I3750
sS'theballerina'
p3698
I4019
sS'blown'
p3699
I1447
sS'scene'
p3700
I671
sS'computerrepair'
p3701
I2837
sS'embarrassed'
p3702
I784
sS'thebrokenvase'
p3703
I4137
sS'owner'
p3704
I785
sS'reached'
p3705
I4021
sS'awarded'
p3706
I2562
sS'quality'
p3707
I1351
sS'succulents'
p3708
I4023
sS'gregswinningbet'
p3709
I2280
sS'monkey'
p3710
I4025
sS'strict'
p3711
I1967
sS'festival'
p3712
I1013
sS'data'
p3713
I2791
sS'pots'
p3714
I2294
sS'system'
p3715
I4028
sS'adopted'
p3716
I4029
sS'their'
p3717
I76
sS'cats'
p3718
I356
sS'shanna'
p3719
I4030
sS'decorations'
p3720
I1476
sS'ton'
p3721
I3448
sS'ankle'
p3722
I1968
sS'rated'
p3723
I4032
sS'chaser'
p3724
I4033
sS'jellyfish'
p3725
I1969
sS'maureenplaysgolf'
p3726
I3492
sS'beard'
p3727
I1352
sS'groggily'
p3728
I4034
sS'sixteenth'
p3729
I4035
sS'billiardsandbliss'
p3730
I4036
sS'stomach'
p3731
I4037
sS'gear'
p3732
I1353
sS'shorts'
p3733
I1970
sS'academy'
p3734
I4038
sS'breastcancer'
p3735
I2092
sS'lou'
p3736
I3765
sS'motorcycle'
p3737
I1354
sS'megan'
p3738
I786
sS'checking'
p3739
I4249
sS'biggest'
p3740
I4313
sS'theperformance'
p3741
I4040
sS'decorating'
p3742
I1914
sS'alerted'
p3743
I4060
sS'universalstudios'
p3744
I2793
sS'july'
p3745
I4041
sS'herself'
p3746
I450
sS'neck'
p3747
I4042
sS'loved'
p3748
I87
sS'glamorous'
p3749
I4043
sS'ben'
p3750
I787
sS'theshampoo'
p3751
I4044
sS'boring'
p3752
I1014
sS'bea'
p3753
I4045
sS'shampoo'
p3754
I2403
sS'see'
p3755
I54
sS'bed'
p3756
I277
sS'tommy'
p3757
I1972
sS'claim'
p3758
I4047
sS'theincredibleday'
p3759
I4048
sS'loves'
p3760
I408
sS'candles'
p3761
I2955
sS'visited'
p3762
I578
sS'matched'
p3763
I4050
sS'bev'
p3764
I4051
sS'bet'
p3765
I499
sS'exhibit'
p3766
I1517
sS'hairstyle'
p3767
I4053
sS'2014'
p3768
I4181
sS'wakes'
p3769
I4054
sS'atriptojapan'
p3770
I4055
sS'trusting'
p3771
I4056
sS'thetrashcan'
p3772
I4057
sS'teenagers'
p3773
I2463
sS'comfortable'
p3774
I4059
sS'themask'
p3775
I2376
sS'spicy'
p3776
I4061
sS'have'
p3777
I59
sS'need'
p3778
I672
sS'apparently'
p3779
I4062
sS'theturtle'
p3780
I4063
sS'jug'
p3781
I4064
sS'harshfoul'
p3782
I2503
sS'lila'
p3783
I4065
sS'followthesound'
p3784
I4066
sS'dishes'
p3785
I1975
sS'dallas'
p3786
I1358
sS'mia'
p3787
I788
sS'studying'
p3788
I947
sS'semester'
p3789
I3304
sS'able'
p3790
I58
sS'waffles'
p3791
I1976
sS'dinnermistake'
p3792
I2524
sS'dug'
p3793
I4069
sS'which'
p3794
I4070
sS'officeparty'
p3795
I4071
sS'truck'
p3796
I500
sS'detector'
p3797
I2546
sS'martha'
p3798
I4073
sS'allow'
p3799
I4074
sS'lionsatthezoo'
p3800
I4076
sS'who'
p3801
I161
sS'doug'
p3802
I3181
sS'montana'
p3803
I1977
sS'connected'
p3804
I4077
sS'but'
p3805
I34
sS'janicemakesabet'
p3806
I4078
sS'camped'
p3807
I4079
sS'medal'
p3808
I1360
sS'class'
p3809
I174
sS'plumber'
p3810
I4080
sS'volunteers'
p3811
I4081
sS'saltycake'
p3812
I2612
sS'tutoring'
p3813
I4083
sS'upset'
p3814
I789
sS'outfit'
p3815
I4151
sS'face'
p3816
I1015
sS'looked'
p3817
I168
sS'dancerecital'
p3818
I4084
sS'scrambled'
p3819
I2638
sS'construction'
p3820
I4086
sS'sickasadog'
p3821
I4087
sS'movie'
p3822
I114
sS'skinny'
p3823
I4088
sS'skunk'
p3824
I4089
sS'painting'
p3825
I580
sS'gain'
p3826
I3636
sS'affair'
p3827
I1978
sS'atmosphere'
p3828
I4091
sS'super'
p3829
I4092
sS'visittograceland'
p3830
I4093
sS'brenda'
p3831
I1979
sS'text'
p3832
I4094
sS'agreed'
p3833
I294
sS'charles'
p3834
I790
sS'anyway'
p3835
I4095
sS'hamlet'
p3836
I4096
sS'bring'
p3837
I1361
sS'planning'
p3838
I1016
sS'parked'
p3839
I1980
sS'bedroom'
p3840
I1981
sS'fear'
p3841
I1017
sS'dried'
p3842
I2984
sS'pleased'
p3843
I409
sS'principal'
p3844
I1982
sS'openings'
p3845
I2114
sS'ear'
p3846
I2056
sS'grabbed'
p3847
I792
sS'tire'
p3848
I581
sS'hadn'
p3849
I1983
sS'booklover'
p3850
I4098
sS'winner'
p3851
I1984
sS'jar'
p3852
I1985
sS'roommates'
p3853
I2913
sS'rash'
p3854
I4100
sS'should'
p3855
I1048
sS'jan'
p3856
I1018
sS'hector'
p3857
I1362
sS'planted'
p3858
I870
sS'tape'
p3859
I1136
sS'ethan'
p3860
I4103
sS'employee'
p3861
I4104
sS'riding'
p3862
I501
sS'piano'
p3863
I1986
sS'local'
p3864
I99
sS'hope'
p3865
I793
sS'finger'
p3866
I1987
sS'meant'
p3867
I4105
sS'bakingcookies'
p3868
I4106
sS'costa'
p3869
I3454
sS'handle'
p3870
I4107
sS'listened'
p3871
I673
sS'beat'
p3872
I1363
sS'canyon'
p3873
I3267
sS'coworker'
p3874
I1019
sS'lucky'
p3875
I794
sS'act'
p3876
I4110
sS'newcast'
p3877
I4111
sS'joint'
p3878
I4112
sS'suet'
p3879
I1988
sS'gerbil'
p3880
I4113
sS'words'
p3881
I1364
sS'assistants'
p3882
I3560
sS'buyer'
p3883
I1989
sS'joetheconcierge'
p3884
I4115
sS'chips'
p3885
I1990
sS'crosscountry'
p3886
I2421
sS'abby'
p3887
I1991
sS'thesewingmachine'
p3888
I4116
sS'following'
p3889
I1928
sS'fran'
p3890
I4117
sS'jobpromotion'
p3891
I3421
sS'ended'
p3892
I233
sS'gust'
p3893
I4118
sS'married'
p3894
I337
sS'pillowfight'
p3895
I4119
sS'taxes'
p3896
I4120
sS'teams'
p3897
I3797
sS'stuff'
p3898
I795
sS'she'
p3899
I10
sS'birthdaygift'
p3900
I2577
sS'ohio'
p3901
I1992
sS'grab'
p3902
I4123
sS'fixed'
p3903
I1022
sS'view'
p3904
I1023
sS'spotted'
p3905
I674
sS'knowing'
p3906
I4124
sS'requirement'
p3907
I4125
sS'claws'
p3908
I4126
sS'puddle'
p3909
I1994
sS'cruise'
p3910
I3942
sS'cleaners'
p3911
I4128
sS"mary'sbook"
p3912
I4129
sS'travis'
p3913
I1995
sS'computer'
p3914
I410
sS'driveway'
p3915
I1365
sS'desperate'
p3916
I1996
sS'skateboarding'
p3917
I4130
sS'humane'
p3918
I4131
sS'packed'
p3919
I796
sS'newhaircolor'
p3920
I4132
sS'closer'
p3921
I1997
sS'soupkitchenvolunteer'
p3922
I3500
sS'nails'
p3923
I4134
sS'closet'
p3924
I1366
sS'placed'
p3925
I4324
sS'pattern'
p3926
I4136
sS'ralph'
p3927
I2933
sS'theblindman'
p3928
I4139
sS'state'
p3929
I582
sS'sweat'
p3930
I4294
sS'landscapingbusiness'
p3931
I3085
sS'closed'
p3932
I4140
sS'horrible'
p3933
I1024
sS'weird'
p3934
I2411
sS'limit'
p3935
I2060
sS'neither'
p3936
I4141
sS'warren'
p3937
I2521
sS'feces'
p3938
I4142
sS'email'
p3939
I1026
sS'bought'
p3940
I102
sS'glen'
p3941
I1156
sS'exam'
p3942
I1966
sS'mydiagnosis'
p3943
I4144
sS'superior'
p3944
I4145
sS'joy'
p3945
I4146
sS'deliver'
p3946
I4147
sS'pajamas'
p3947
I4299
sS"justin'sinternship"
p3948
I4148
sS'job'
p3949
I69
sS'joe'
p3950
I370
sS'key'
p3951
I4149
sS'group'
p3952
I616
sS'puzzled'
p3953
I2193
sS'souvenir'
p3954
I3424
sS'lawsuit'
p3955
I3655
sS'jon'
p3956
I1999
sS'thank'
p3957
I2810
sS'marty'
p3958
I4153
sS'toothbrush'
p3959
I4154
sS'themagician'
p3960
I3440
sS'figured'
p3961
I3768
sS'career'
p3962
I2001
sS'theonethatperseveres'
p3963
I4156
sS'taking'
p3964
I354
sS'ramp'
p3965
I2002
sS'tedbreaksdown'
p3966
I4157
sS'newshoes'
p3967
I2496
sS'admit'
p3968
I1028
sS'passing'
p3969
I2003
sS'heart'
p3970
I3680
sS'safely'
p3971
I4158
sS'journey'
p3972
I4160
sS'aquarium'
p3973
I584
sS'dust'
p3974
I3481
sS'co'
p3975
I797
sS'wendyloseshercool'
p3976
I3571
sS'wall'
p3977
I502
sS'tuesday'
p3978
I4162
sS'bikini'
p3979
I3618
sS'walk'
p3980
I371
sS'laugh'
p3981
I2005
sS'news'
p3982
I451
sS'table'
p3983
I295
sS'anoldfriend'
p3984
I4163
sS'lorrie'
p3985
I4164
sS'unhappiness'
p3986
I3117
sS'quit'
p3987
I798
sS'mailman'
p3988
I4166
sS'videos'
p3989
I1368
sS'swimmer'
p3990
I1369
sS'attendant'
p3991
I3419
sS'decent'
p3992
I4167
sS'silvia'
p3993
I2006
sS'sara'
p3994
I2007
sS'thanked'
p3995
I1029
sS'breakdown'
p3996
I4168
sS'quiz'
p3997
I4169
sS'shame'
p3998
I2483
sS'exhausted'
p3999
I2008
sS'homeschooled'
p4000
I4170
sS'drank'
p4001
I585
sS'slowly'
p4002
I1737
sS'treat'
p4003
I1370
sS'curtain'
p4004
I1738
sS'proposal'
p4005
I3169
sS'waste'
p4006
I4173
sS'bbq'
p4007
I1695
sS'faced'
p4008
I4175
sS'mike'
p4009
I675
sS'cop'
p4010
I1638
sS'painted'
p4011
I2010
sS'moved'
p4012
I800
sS'turtlehatching'
p4013
I4177
sS'al'
p4014
I4178
sS'orange'
p4015
I4179
sS'finished'
p4016
I338
sS'thecoffeeshop'
p4017
I4180
sS'covered'
p4018
I3956
sS'smoking'
p4019
I1216
sS'adayonthebeach'
p4020
I4183
sS"we'vebeenrobbed"
p4021
I3232
sS'present'
p4022
I1030
sS'homes'
p4023
I3221
sS'novel'
p4024
I1031
sS'license'
p4025
I3988
sS"dog'sbehavior"
p4026
I4187
sS'dodge'
p4027
I4188
sS'plain'
p4028
I4189
sS'harder'
p4029
I4190
sS'value'
p4030
I2011
sS'will'
p4031
I503
sS'owns'
p4032
I4192
sS'promoted'
p4033
I2012
sS'2012'
p4034
I3959
sS'frustrating'
p4035
I4193
sS"jill'snightout"
p4036
I4194
sS'at'
p4037
I36
sS'supply'
p4038
I1169
sS'barely'
p4039
I4196
sS've'
p4040
I2013
sS'surprisingly'
p4041
I2015
sS'ambergoestothemovies'
p4042
I2409
sS'readinginfluencer'
p4043
I4198
sS'helped'
p4044
I1032
sS"jude'sguitar"
p4045
I4199
sS'lonely'
p4046
I2820
sS'demanded'
p4047
I2620
sS'frying'
p4048
I4202
sS'politics'
p4049
I4203
sS'tombecomesajudge'
p4050
I4204
sS'ava'
p4051
I4205
sS'palmed'
p4052
I4206
sS'education'
p4053
I2208
sS'admitted'
p4054
I4257
sS'generic'
p4055
I4208
sS'began'
p4056
I204
sS'cross'
p4057
I2016
sS'campus'
p4058
I2017
sS'member'
p4059
I1373
sS'matthew'
p4060
I4209
sS'another'
p4061
I2018
sS'strange'
p4062
I2019
sS'coffeeburn'
p4063
I4210
sS'shuttle'
p4064
I4211
sS'party'
p4065
I504
sS'cream'
p4066
I438
sS'lovenote'
p4067
I4212
sS'tomatoes'
p4068
I1253
sS'difficult'
p4069
I586
sS'injured'
p4070
I802
sS'ball'
p4071
I587
sS'eggplant'
p4072
I4214
sS'suzy'
p4073
I4215
sS'drink'
p4074
I1374
sS'upon'
p4075
I1375
sS'upclose'
p4076
I4216
sS'universityofalabama'
p4077
I3420
sS'bullying'
p4078
I4218
sS'conqueringafear'
p4079
I4219
sS'tangled'
p4080
I4220
sS'oranges'
p4081
I2020
sS'student'
p4082
I372
sS'discouraged'
p4083
I2021
sS'infinite'
p4084
I2022
sS'yoga'
p4085
I2023
sS'sunburn'
p4086
I2024
sS'kitchennightmare'
p4087
I4221
sS'keep'
p4088
I244
sS'eggplantparmesan'
p4089
I4223
sS'ashley'
p4090
I645
sS'center'
p4091
I803
sS'lunch'
p4092
I268
sS'i'
p4093
I20
sS'ingredients'
p4094
I3773
sS'well'
p4095
I223
sS'unpacked'
p4096
I2025
sS'fighting'
p4097
I4227
sS'antonio'
p4098
I2026
sS'thought'
p4099
I241
sS'suzygoestoschool'
p4100
I4228
sS'drone'
p4101
I1376
sS'mountainclimbing'
p4102
I4229
sS"roy'snewpup"
p4103
I4230
sS'english'
p4104
I1377
sS'tasted'
p4105
I4231
sS'position'
p4106
I589
sS'drawing'
p4107
I1033
sS'latest'
p4108
I4232
sS'moreimportantthingsthanpeople'
p4109
I3953
sS'stores'
p4110
I2027
sS'cried'
p4111
I804
sS'less'
p4112
I2028
sS'boot'
p4113
I4342
sS'areyoudoneyet'
p4114
I4234
sS'flies'
p4115
I909
sS'gun'
p4116
I676
sS'flea'
p4117
I3969
sS'stored'
p4118
I4236
sS'warmbeer'
p4119
I3141
sS'fishing'
p4120
I805
sS'seats'
p4121
I4237
sS'paul'
p4122
I4191
sS'graduate'
p4123
I3191
sS'flashlight'
p4124
I2029
sS'web'
p4125
I2030
sS'tight'
p4126
I3192
sS'mixer'
p4127
I3132
sS'headed'
p4128
I452
sS'smith'
p4129
I2031
sS'lake'
p4130
I590
sS'realize'
p4131
I677
sS"jimmy'spie"
p4132
I4241
sS"genie'smask"
p4133
I4242
sS'add'
p4134
I4243
sS'other'
p4135
I206
sS'wet'
p4136
I806
sS'flighttothemoon'
p4137
I3962
sS'astronaut'
p4138
I4245
sS'jars'
p4139
I4246
sS'smart'
p4140
I2032
sS'balloons'
p4141
I1516
sS'lancewins'
p4142
I4247
sS'homework'
p4143
I1379
sS'held'
p4144
I3365
sS'characters'
p4145
I3643
sS'mechanical'
p4146
I3206
sS'barbiehouseformeredith'
p4147
I4250
sS'crushed'
p4148
I4251
sS'five'
p4149
I807
sS'know'
p4150
I242
sS'upinsmokes'
p4151
I4252
sS'desk'
p4152
I453
sS'press'
p4153
I4253
sS'immediately'
p4154
I4254
sS'loss'
p4155
I4255
sS'fleas'
p4156
I2035
sS'trash'
p4157
I1745
sS'emma'
p4158
I1380
sS'like'
p4159
I411
sS'success'
p4160
I844
sS'tryouts'
p4161
I4256
sS'sofa'
p4162
I1035
sS'tons'
p4163
I2036
sS'clown'
p4164
I976
sS'taping'
p4165
I4258
sS'garage'
p4166
I505
sS"paul'sbusinesstrip"
p4167
I4259
sS'lose'
p4168
I1036
sS'become'
p4169
I1381
sS'works'
p4170
I678
sS'soft'
p4171
I2037
sS'page'
p4172
I1382
sS'dallaswantstowrestle'
p4173
I3047
sS'receiving'
p4174
I3753
sS'alabama'
p4175
I3862
sS'because'
p4176
I278
sS'classical'
p4177
I4262
sS'scared'
p4178
I373
sS'scottish'
p4179
I3610
sS'searching'
p4180
I1383
sS'library'
p4181
I1892
sS'hair'
p4182
I312
sS'pawned'
p4183
I4263
sS'almonds'
p4184
I4264
sS'gymnastics'
p4185
I4265
sS'straighten'
p4186
I3263
sS'renovations'
p4187
I3954
sS'home'
p4188
I50
sS'supportive'
p4189
I3763
sS'counterpizza'
p4190
I4267
sS'250'
p4191
I3018
sS'turkeyreplacement'
p4192
I4269
sS'jeremy'
p4193
I2039
sS'monday'
p4194
I4349
sS'lead'
p4195
I1905
sS'thedog'
p4196
I4271
sS'dunes'
p4197
I3799
sS'leak'
p4198
I2040
sS'leah'
p4199
I4273
sS'hurricane'
p4200
I1384
sS'slide'
p4201
I4274
sS'shelter'
p4202
I1385
sS'fountain'
p4203
I3406
sS'passion'
p4204
I4276
sS'sewing'
p4205
I4277
sS'wendy'
p4206
I2041
sS'hire'
p4207
I1483
sS'speak'
p4208
I4279
sS'?'
p4209
I571
sS'trout'
p4210
I2042
sS'thehaircut'
p4211
I4281
sS'ripped'
p4212
I2043
sS'noise'
p4213
I769
sS'dianetakesaride'
p4214
I4283
sS'missingingredient'
p4215
I4284
sS'shaneshaveshisbeard'
p4216
I4195
sS'ability'
p4217
I4143
sS'pressure'
p4218
I2044
sS'host'
p4219
I4285
sS'thekittens'
p4220
I4286
sS'although'
p4221
I1386
sS'pasta'
p4222
I2166
sS'sandwiches'
p4223
I975
sS'insults'
p4224
I3238
sS'yowling'
p4225
I4290
sS'stage'
p4226
I997
sS'sister'
p4227
I412
sS'justin'
p4228
I313
sS'gettingtothestore'
p4229
I3812
sS'getting'
p4230
I339
sS'spilled'
p4231
I2045
sS'location'
p4232
I3665
sS'scott'
p4233
I1824
sS'rodeo'
p4234
I4293
sS"ardenwantedhiswife'sattention"
p4235
I2907
sS'introduced'
p4236
I4295
sS'swimming'
p4237
I1387
sS'equally'
p4238
I4296
sS'own'
p4239
I297
sS'keeps'
p4240
I2214
sS'remembers'
p4241
I3574
sS'winningticket'
p4242
I4297
sS'screamed'
p4243
I2048
sS'fundraiser'
p4244
I4298
sS'guard'
p4245
I3442
sS'weather'
p4246
I2049
sS'brush'
p4247
I1841
sS'puppypurchase'
p4248
I4300
sS'artists'
p4249
I2051
sS'poodlepride'
p4250
I4301
sS'quickly'
p4251
I2052
sS'anunusualtriptothecinema'
p4252
I4302
sS'deathofamaple'
p4253
I3672
sS'bikes'
p4254
I2053
sS'accused'
p4255
I4304
sS'1983'
p4256
I2184
sS'exciting'
p4257
I1388
sS'rushed'
p4258
I808
sS'museum'
p4259
I1038
sS'lostandfound'
p4260
I3950
sS'secret'
p4261
I3594
sS'noticed'
p4262
I135
sS'spread'
p4263
I4308
sS'accountant'
p4264
I4309
sS'bees'
p4265
I2054
sS'jamesplaysfootball'
p4266
I4310
sS'thewaffles'
p4267
I4311
sS'complimented'
p4268
I3864
sS'gene'
p4269
I3866
sS'notices'
p4270
I1971
sS'gut'
p4271
I4314
sS'chunk'
p4272
I3981
sS'jaketakesatest'
p4273
I4316
sS'buy'
p4274
I65
sS'tina'
p4275
I4317
sS'shane'
p4276
I679
sS'bus'
p4277
I314
sS'brand'
p4278
I1039
sS'evacuate'
p4279
I1359
sS'natalie'
p4280
I3212
sS'goals'
p4281
I2055
sS'wage'
p4282
I2423
sS'highest'
p4283
I1858
sS'eat'
p4284
I148
sS'he'
p4285
I9
sS'swarmed'
p4286
I4320
sS'made'
p4287
I93
sS'tossed'
p4288
I2057
sS'places'
p4289
I2058
sS'whether'
p4290
I2059
sS'wish'
p4291
I1391
sS'notime'
p4292
I4321
sS'flip'
p4293
I4322
sS'signed'
p4294
I1040
sS'excitement'
p4295
I4323
sS'record'
p4296
I4135
sS'shelby'
p4297
I4325
sS'stories'
p4298
I1025
sS'cake'
p4299
I506
sS'problem'
p4300
I1042
sS'piece'
p4301
I454
sS'minutes'
p4302
I2061
sS'display'
p4303
I4326
sS'thepasta'
p4304
I4327
sS'skating'
p4305
I2062
sS'firm'
p4306
I3599
sS"marc'sabsence"
p4307
I4328
sS'jenny'
p4308
I2063
sS'nurses'
p4309
I4329
sS'newpuppy'
p4310
I4330
sS'circus'
p4311
I2064
sS'pie'
p4312
I4331
sS'cruisevacation'
p4313
I4332
sS'thehelp'
p4314
I2779
sS'boardwalk'
p4315
I4334
sS'erik'
p4316
I4335
sS'families'
p4317
I4336
sS'shooting'
p4318
I2065
sS'pit'
p4319
I4337
sS'eric'
p4320
I1392
sS'squirrel'
p4321
I4338
sS'creditfraud'
p4322
I4339
sS'arra'
p4323
I4340
sS'contest'
p4324
I1043
sS'dressed'
p4325
I1044
sS'newschool'
p4326
I4341
sS'oak'
p4327
I4233
sS'loosedoggy'
p4328
I4343
sS'thelibrarybook'
p4329
I3465
sS'hospitalized'
p4330
I2459
sS'poms'
p4331
I4346
sS'book'
p4332
I186
sS'shannon'
p4333
I3170
sS'er'
p4334
I3385
sS'guys'
p4335
I4026
sS'lance'
p4336
I2066
sS'junk'
p4337
I2067
sS'star'
p4338
I591
sS'waves'
p4339
I2869
sS'mturk'
p4340
I4350
sS'june'
p4341
I1393
sS'matt'
p4342
I4351
sS'stay'
p4343
I809
sS'chance'
p4344
I1394
sS'sciencetest'
p4345
I3709
sS'stan'
p4346
I1260
sS'friends'
p4347
I62
sS'connorcarbreaksdown'
p4348
I4353
sS'mytoughworkday'
p4349
I4354
sS'coat'
p4350
I4356
sS'notsanta'
p4351
I3990
sS'hiked'
p4352
I1395
sS'judybuysadress'
p4353
I4357
sS'ambulance'
p4354
I4358
sS'baked'
p4355
I4366
sS'bakes'
p4356
I4359
sS'lasted'
p4357
I1045
sS"where'sthewaterwhenyouneedit"
p4358
I4360
sS'lift'
p4359
I3343
sS'elaine'
p4360
I4362
sS'searched'
p4361
I455
sS'rockshow'
p4362
I4363
sS'understand'
p4363
I4364
sS'yell'
p4364
I2068
sS'smoker'
p4365
I4365
sS'skimming'
p4366
I3030
sS'moraldecision'
p4367
I4367
sS'paired'
p4368
I3762
s.