(dp0
S'raining'
p1
I985
sS'acttesting'
p2
I2369
sS'yellow'
p3
I986
sS'four'
p4
I1226
sS"jen'sandkate'ssleepover"
p5
I2370
sS'woods'
p6
I562
sS'sleep'
p7
I177
sS'asian'
p8
I2288
sS'socialworker'
p9
I2372
sS'railing'
p10
I2373
sS'suzana'
p11
I2374
sS'captain'
p12
I2375
sS'saved'
p13
I987
sS'chili'
p14
I2376
sS'thinking'
p15
I4284
sS'marching'
p16
I2377
sS'differentopinions'
p17
I3575
sS'buddy'
p18
I2379
sS'swam'
p19
I729
sS"theconsequencesoftrisha'scarelessness"
p20
I2381
sS'stinky'
p21
I988
sS'swan'
p22
I2382
sS'themodel'
p23
I2383
sS'bike'
p24
I217
sS'lori'
p25
I989
sS'voted'
p26
I2384
sS'under'
p27
I619
sS'markplaysfrisbee'
p28
I2385
sS'teaching'
p29
I1227
sS'sorry'
p30
I1623
sS'nofood'
p31
I2386
sS'worth'
p32
I839
sS'theleak'
p33
I2389
sS'amadwife'
p34
I2392
sS'firingfriends'
p35
I2393
sS'callie'
p36
I2394
sS'blanket'
p37
I1228
sS'thecraft'
p38
I2395
sS'vase'
p39
I734
sS'every'
p40
I131
sS'jack'
p41
I498
sS'thenewtoy'
p42
I2397
sS'kick'
p43
I1624
sS'jacob'
p44
I2398
sS'screaming'
p45
I1625
sS'monkeys'
p46
I2400
sS'breakingmyleg'
p47
I2401
sS'tickets'
p48
I2402
sS'smithfamilytrip'
p49
I2403
sS'school'
p50
I89
sS'theaffair'
p51
I2404
sS'baking'
p52
I1626
sS'prize'
p53
I2405
sS'ontime'
p54
I2406
sS'skills'
p55
I460
sS'ovation'
p56
I2407
sS'nicktakeshisgirlfriendouttodinner'
p57
I2408
sS'venue'
p58
I2409
sS'savedforever'
p59
I2410
sS'convenience'
p60
I1229
sS'nursery'
p61
I1627
sS'red'
p62
I489
sS'calendar'
p63
I1932
sS'theredcoat'
p64
I4099
sS'commented'
p65
I1629
sS'clothes'
p66
I725
sS'enjoy'
p67
I496
sS'chew'
p68
I1703
sS'tired'
p69
I132
sS'bacon'
p70
I1231
sS'shut'
p71
I2249
sS'budget'
p72
I930
sS'nail'
p73
I1630
sS'youtube'
p74
I4299
sS'street'
p75
I388
sS'collegeadmission'
p76
I2414
sS'lacy'
p77
I3682
sS'writing'
p78
I3829
sS'scraped'
p79
I2418
sS'jessica'
p80
I815
sS'even'
p81
I848
sS'dentistvisit'
p82
I2420
sS'hide'
p83
I835
sS'christ'
p84
I2421
sS'dinnerwithcoworkers'
p85
I4312
sS'wreck'
p86
I2422
sS'areyoukiddingme'
p87
I2423
sS'ned'
p88
I2424
sS'cooking'
p89
I726
sS'orchestra'
p90
I1632
sS'near'
p91
I1768
sS'poison'
p92
I2425
sS'assembled'
p93
I2426
sS'lights'
p94
I727
sS'selena'
p95
I4690
sS'above'
p96
I2427
sS'retrieved'
p97
I2428
sS'zoomed'
p98
I2429
sS'new'
p99
I38
sS'net'
p100
I2133
sS'improperly'
p101
I2431
sS'ever'
p102
I1232
sS'disney'
p103
I1633
sS'told'
p104
I105
sS'crunch'
p105
I2432
sS'meg'
p106
I2433
sS'felicia'
p107
I2434
sS'reporter'
p108
I1634
sS'pancakes'
p109
I4109
sS'mel'
p110
I1635
sS'never'
p111
I164
sS'stared'
p112
I1636
sS'here'
p113
I1637
sS'hundreds'
p114
I2436
sS'met'
p115
I430
sS'lindalosesherjob'
p116
I4135
sS'studio'
p117
I2437
sS'rickygetstired'
p118
I2438
sS'active'
p119
I1638
sS'100'
p120
I1282
sS'dry'
p121
I2440
sS'kids'
p122
I118
sS'daughter'
p123
I992
sS'forum'
p124
I2441
sS'auction'
p125
I2442
sS'items'
p126
I993
sS'study'
p127
I728
sS'changed'
p128
I461
sS'jail'
p129
I3183
sS'adopt'
p130
I2443
sS'credit'
p131
I571
sS'jogging'
p132
I2444
sS"girl'snight"
p133
I4290
sS'menu'
p134
I2697
sS'cindy'
p135
I1294
sS'military'
p136
I1641
sS'goingoutforsushi'
p137
I2447
sS'chloegetsahaircut'
p138
I2448
sS"larry'snightmare"
p139
I2449
sS'joshua'
p140
I2450
sS'besides'
p141
I2451
sS'campaign'
p142
I563
sS'thepuppies'
p143
I2452
sS'straw'
p144
I1642
sS'spooky'
p145
I1643
sS'julie'
p146
I1233
sS'julia'
p147
I1234
sS'feelings'
p148
I2453
sS'brought'
p149
I462
sS'thenurse'
p150
I2462
sS"sarah'slittlesucculents"
p151
I2455
sS'diabetes'
p152
I4769
sS'tonya'
p153
I4072
sS'sprinted'
p154
I2457
sS'birthdaybeachtrip'
p155
I2458
sS'unit'
p156
I2459
sS'sarah'
p157
I340
sS'charge'
p158
I1644
sS'spoke'
p159
I1645
sS'would'
p160
I54
sS'army'
p161
I1646
sS'<s>'
p162
I2
sS'sweater'
p163
I1029
sS'watering'
p164
I431
sS'arms'
p165
I2463
sS'foster'
p166
I2360
sS'call'
p167
I438
sS'calm'
p168
I2465
sS'strike'
p169
I2466
sS'grahams'
p170
I2467
sS'ora'
p171
I2468
sS'type'
p172
I638
sS'tell'
p173
I730
sS'dinnertime'
p174
I3689
sS'separated'
p175
I1647
sS'meowed'
p176
I1648
sS'dumped'
p177
I2811
sS'paperwork'
p178
I2470
sS'relax'
p179
I836
sS'successful'
p180
I280
sS'oscar'
p181
I1649
sS'lovenote'
p182
I4757
sS'chunk'
p183
I4497
sS'hurt'
p184
I1235
sS'grief'
p185
I2471
sS'phone'
p186
I281
sS'warm'
p187
I995
sS'adult'
p188
I1652
sS'prescription'
p189
I2110
sS'changeofplans'
p190
I2473
sS'90'
p191
I2474
sS'hole'
p192
I620
sS'hold'
p193
I837
sS'bestmanneeded'
p194
I2475
sS'blocking'
p195
I2476
sS'spiraled'
p196
I2525
sS'must'
p197
I1653
sS'me'
p198
I218
sS'scooterinjury'
p199
I2477
sS'join'
p200
I1236
sS'wore'
p201
I731
sS'jess'
p202
I1954
sS'myhumanlovesme'
p203
I2478
sS'work'
p204
I56
sS'roof'
p205
I838
sS'regrets'
p206
I2387
sS'movies'
p207
I390
sS'dock'
p208
I4477
sS'mechanic'
p209
I1654
sS'henry'
p210
I996
sS'gossiping'
p211
I3086
sS'rileyeatsdumplings'
p212
I2479
sS'jamal'
p213
I1655
sS'my'
p214
I51
sS'route'
p215
I1656
sS'cone'
p216
I2480
sS'mileschewsgum'
p217
I2482
sS'headphones'
p218
I3261
sS'myprettypony'
p219
I2721
sS'give'
p220
I621
sS'bakingacake'
p221
I2486
sS'india'
p222
I2487
sS'dragons'
p223
I2489
sS'honey'
p224
I1237
sS'foods'
p225
I1238
sS'atripinthewoods'
p226
I2490
sS'thewhale'
p227
I2491
sS'want'
p228
I266
sS'violin'
p229
I1657
sS'johnnybakesapie'
p230
I2492
sS'drive'
p231
I524
sS'times'
p232
I1057
sS'worse'
p233
I1239
sS'poorly'
p234
I2494
sS'end'
p235
I463
sS'recovery'
p236
I2495
sS'thing'
p237
I1063
sS'lostsight'
p238
I2496
sS'travel'
p239
I732
sS'song'
p240
I1102
sS'redecorated'
p241
I4196
sS'machine'
p242
I733
sS'how'
p243
I111
sS'hot'
p244
I2344
sS"robert'sadventure"
p245
I2498
sS'answer'
p246
I670
sS'gate'
p247
I1241
sS'bianca'
p248
I2499
sS'beach'
p249
I233
sS'charging'
p250
I2500
sS'marinara'
p251
I2968
sS'pizza'
p252
I341
sS'raffle'
p253
I1661
sS'gaming'
p254
I997
sS'achampionshipswim'
p255
I2501
sS'honored'
p256
I2502
sS'briefcase'
p257
I1662
sS'backtoschoolshopping'
p258
I2503
sS'mess'
p259
I1663
sS'after'
p260
I73
sS'weneedapassword'
p261
I2504
sS'lab'
p262
I1664
sS'wrong'
p263
I582
sS'jumping'
p264
I1242
sS'lay'
p265
I2506
sS'curiosity'
p266
I3267
sS'nate'
p267
I2508
sS'popquiz'
p268
I4365
sS'president'
p269
I1243
sS'law'
p270
I1068
sS'lap'
p271
I2509
sS'bushes'
p272
I2510
sS'types'
p273
I1666
sS'purchase'
p274
I464
sS'danny'
p275
I2511
sS'third'
p276
I1667
sS'wins'
p277
I2512
sS'dealer'
p278
I2513
sS'lost'
p279
I195
sS'sliced'
p280
I2514
sS'scare'
p281
I2253
sS'janie'
p282
I2516
sS'cigarettes'
p283
I1669
sS'18th'
p284
I1670
sS'green'
p285
I2517
sS'frequent'
p286
I2518
sS'goodbye'
p287
I1671
sS'enter'
p288
I1673
sS'plumbing'
p289
I1917
sS'doorhandledisaster'
p290
I2521
sS'operate'
p291
I2522
sS'order'
p292
I1849
sS'wind'
p293
I841
sS'wine'
p294
I1076
sS'clumsiness'
p295
I2524
sS'exotic'
p296
I2017
sS'salon'
p297
I1672
sS'office'
p298
I499
sS'deck'
p299
I3352
sS'dreamed'
p300
I998
sS'over'
p301
I93
sS'fall'
p302
I2016
sS'pound'
p303
I2527
sS'satisfied'
p304
I1674
sS'sabrina'
p305
I2528
sS'jerry'
p306
I1675
sS'babyshower'
p307
I2529
sS'oven'
p308
I1244
sS'keyboard'
p309
I2531
sS'thegame'
p310
I2532
sS'exited'
p311
I2464
sS'mayor'
p312
I2533
sS'clapped'
p313
I2534
sS'before'
p314
I316
sS'scoring'
p315
I2535
sS'some'
p316
I138
sS'fit'
p317
I1676
sS'somewhere'
p318
I2537
sS'fireplace'
p319
I2950
sS'fix'
p320
I735
sS'entree'
p321
I4429
sS'tomseescomedy'
p322
I2539
sS','
p323
I12
sS'denver'
p324
I2540
sS'crew'
p325
I1678
sS'destroyed'
p326
I905
sS'karenlosesherkitty'
p327
I3994
sS'gobbled'
p328
I2541
sS'thebeach'
p329
I2542
sS'stifling'
p330
I2543
sS'weeks'
p331
I623
sS'promapproach'
p332
I2544
sS'easier'
p333
I2545
sS'overcome'
p334
I2546
sS'theo'
p335
I1679
sS'then'
p336
I103
sS'them'
p337
I44
sS'woken'
p338
I2548
sS'weatherproblems'
p339
I2549
sS'moviedate'
p340
I3472
sS'gettinghealthier'
p341
I2551
sS'safe'
p342
I624
sS'smellymonday'
p343
I2552
sS'break'
p344
I999
sS'band'
p345
I736
sS'roommate'
p346
I1681
sS'brokenwindow'
p347
I2553
sS'drinking'
p348
I1682
sS'nightclubdrama'
p349
I2554
sS'they'
p350
I20
sS'payback'
p351
I2538
sS'killed'
p352
I2556
sS'stolengameboy'
p353
I2557
sS'sixteen'
p354
I1683
sS'silver'
p355
I2558
sS'bank'
p356
I625
sS'bread'
p357
I737
sS'alex'
p358
I1684
sS'meat'
p359
I1685
sS'oxygen'
p360
I2559
sS'potatoes'
p361
I1686
sS'wheniranaway'
p362
I2560
sS"charlie'sbrokenleg"
p363
I2561
sS'arrested'
p364
I1970
sS'lucy'
p365
I1000
sS'plugs'
p366
I4136
sS'grows'
p367
I2563
sS'lucasreadsthenews'
p368
I2629
sS'filling'
p369
I843
sS'reasonable'
p370
I1687
sS'each'
p371
I219
sS'went'
p372
I27
sS'spiders'
p373
I2371
sS'meal'
p374
I342
sS'carlos'
p375
I1245
sS'luck'
p376
I1001
sS'nastyoccurrence'
p377
I4544
sS'fee'
p378
I4383
sS'financial'
p379
I2565
sS'diana'
p380
I1689
sS'series'
p381
I2567
sS'diane'
p382
I2568
sS'spider'
p383
I897
sS'sled'
p384
I2569
sS'tip'
p385
I1691
sS'taught'
p386
I1692
sS'forgot'
p387
I595
sS'knitting'
p388
I4121
sS'saturday'
p389
I1002
sS'brings'
p390
I2573
sS'theaudition'
p391
I2574
sS'goodtrick'
p392
I2576
sS'driving'
p393
I173
sS'sang'
p394
I2577
sS'motel'
p395
I2579
sS'bat'
p396
I2580
sS'washed'
p397
I1693
sS'sparkly'
p398
I2581
sS'mason'
p399
I2419
sS'beaniebabies'
p400
I2583
sS're'
p401
I1246
sS'laid'
p402
I1694
sS'daniel'
p403
I1695
sS'bonnets'
p404
I2378
sS'medicine'
p405
I1696
sS'got'
p406
I46
sS'washer'
p407
I1247
sS'billhastrouble'
p408
I2586
sS'sliding'
p409
I2587
sS'splashed'
p410
I2588
sS'turning'
p411
I248
sS'softball'
p412
I1861
sS'written'
p413
I2590
sS'tasha'
p414
I1697
sS'leftovers'
p415
I2591
sS"karen'strip"
p416
I2592
sS'given'
p417
I1900
sS'free'
p418
I1698
sS'fred'
p419
I1250
sS'kayla'
p420
I1251
sS'elle'
p421
I3698
sS"lisa'srestaurant"
p422
I2594
sS'gregswinningbet'
p423
I2596
sS'wanted'
p424
I53
sS'heat'
p425
I1700
sS'catwantstobelong'
p426
I2597
sS'aisle'
p427
I2598
sS'ate'
p428
I143
sS'burnttoacrisp'
p429
I2599
sS'thebuckeyes'
p430
I2600
sS'created'
p431
I2601
sS'starts'
p432
I1252
sS'messages'
p433
I1003
sS'days'
p434
I845
sS'scrounge'
p435
I2602
sS'weightloss'
p436
I2603
sS'shelved'
p437
I2604
sS'bears'
p438
I2605
sS'nurses'
p439
I4895
sS'musicians'
p440
I2562
sS'isn'
p441
I1701
sS'farmfresheggs'
p442
I4174
sS'uses'
p443
I1253
sS'loud'
p444
I432
sS'bite'
p445
I1254
sS'rang'
p446
I738
sS'already'
p447
I840
sS'icecreamday'
p448
I2610
sS'jamaica'
p449
I2412
sS'grade'
p450
I626
sS'pots'
p451
I2611
sS'celebrating'
p452
I3344
sS'accidentally'
p453
I915
sS'shopped'
p454
I2612
sS'wash'
p455
I2613
sS'spinning'
p456
I2614
sS'elena'
p457
I2615
sS'newfoods'
p458
I2616
sS'delicious'
p459
I317
sS'wasn'
p460
I2617
sS'rats'
p461
I2618
sS'thick'
p462
I1705
sS'ditch'
p463
I2619
sS'tuna'
p464
I2620
sS'researched'
p465
I814
sS'toy'
p466
I564
sS'apgar'
p467
I3713
sS'service'
p468
I565
sS"jackie'scookies"
p469
I2622
sS'top'
p470
I318
sS'towel'
p471
I4175
sS'girls'
p472
I846
sS'tow'
p473
I1708
sS'heights'
p474
I2624
sS'stealing'
p475
I3008
sS'needed'
p476
I174
sS'compromise'
p477
I1255
sS'too'
p478
I140
sS'tom'
p479
I70
sS'john'
p480
I203
sS'dogs'
p481
I1709
sS'tod'
p482
I2625
sS'listen'
p483
I1710
sS'curtains'
p484
I2626
sS'ceiling'
p485
I1711
sS'murder'
p486
I1256
sS'alfred'
p487
I3237
sS'happily'
p488
I501
sS'barbiehouseformeredith'
p489
I4797
sS'gym'
p490
I433
sS'brushes'
p491
I2627
sS'albert'
p492
I1713
sS'took'
p493
I85
sS'japanese'
p494
I2413
sS'wrapped'
p495
I2628
sS'thedate'
p496
I2925
sS'newfriends'
p497
I2630
sS'cereal'
p498
I794
sS'helen'
p499
I2631
sS'wasted'
p500
I1257
sS'practiced'
p501
I502
sS'chey'
p502
I2858
sS'brushed'
p503
I2633
sS'theinterview'
p504
I2634
sS'huntingtrip'
p505
I2635
sS'begins'
p506
I1715
sS'swapped'
p507
I4541
sS'anxiety'
p508
I2636
sS'slidingintosecond'
p509
I2637
sS'showed'
p510
I739
sS'hike'
p511
I1258
sS'bloated'
p512
I1717
sS'crosses'
p513
I4401
sS'tree'
p514
I213
sS'ihop'
p515
I2585
sS'shower'
p516
I503
sS'matter'
p517
I2639
sS'classes'
p518
I740
sS'silly'
p519
I1004
sS'iron'
p520
I2640
sS'bigmama'
p521
I2641
sS'tackled'
p522
I4057
sS'feeling'
p523
I504
sS'fashion'
p524
I1720
sS'sees'
p525
I2642
sS'sixteenth'
p526
I4557
sS'ran'
p527
I204
sS'boston'
p528
I1005
sS'10th'
p529
I4059
sS'mind'
p530
I1497
sS'mine'
p531
I1485
sS'anybody'
p532
I1508
sS'talking'
p533
I628
sS'rat'
p534
I1260
sS'lunchtime'
p535
I2646
sS'johnburnsthebiscuits'
p536
I2647
sS'seen'
p537
I1721
sS'grind'
p538
I2648
sS'mint'
p539
I2649
sS'tells'
p540
I1501
sS'alive'
p541
I2650
sS'dozen'
p542
I2651
sS'forced'
p543
I1261
sS'hood'
p544
I2621
sS'strength'
p545
I1006
sS'necktie'
p546
I2653
sS'concrete'
p547
I1723
sS'thoroughly'
p548
I2654
sS'soaked'
p549
I1510
sS'-'
p550
I152
sS'snow'
p551
I1007
sS'kaya'
p552
I2656
sS'brandon'
p553
I847
sS'sound'
p554
I566
sS'chest'
p555
I2658
sS'causing'
p556
I1153
sS'chess'
p557
I1262
sS'thecompromise'
p558
I2660
sS'paris'
p559
I1425
sS'yucky'
p560
I2661
sS'quarterback'
p561
I1725
sS'cookout'
p562
I2662
sS'blue'
p563
I1631
sS'susie'
p564
I1263
sS'committing'
p565
I2663
sS'jammed'
p566
I3432
sS'though'
p567
I1008
sS'thrilled'
p568
I364
sS'beauty'
p569
I2664
sS'outcome'
p570
I3300
sS'sue'
p571
I1009
sS'thepolygraph'
p572
I2665
sS'audition'
p573
I741
sS'regular'
p574
I849
sS'germany'
p575
I1726
sS'letter'
p576
I742
sS'exercises'
p577
I1727
sS'drought'
p578
I2666
sS'coin'
p579
I1728
sS'jean'
p580
I1781
sS'maria'
p581
I505
sS'singer'
p582
I2668
sS'opheliaknitsasweater'
p583
I2846
sS'don'
p584
I2670
sS'sparechange'
p585
I2671
sS'hanna'
p586
I2672
sS'grove'
p587
I2673
sS'alarm'
p588
I1264
sS'camp'
p589
I1729
sS'dog'
p590
I83
sS'musical'
p591
I1782
sS'cami'
p592
I2674
sS'definitely'
p593
I1730
sS'tech'
p594
I1731
sS'embarrassingmoment'
p595
I2675
sS'aced'
p596
I4723
sS'breathed'
p597
I2676
sS'entertaining'
p598
I2677
sS'thethief'
p599
I2678
sS'er'
p600
I3851
sS'responded'
p601
I2680
sS'came'
p602
I134
sS"jane'spainting"
p603
I4519
sS'selected'
p604
I1732
sS'bait'
p605
I2682
sS'contacted'
p606
I2683
sS'hunger'
p607
I1733
sS'thepotatolover'
p608
I2685
sS'queen'
p609
I1734
sS'teresa'
p610
I1735
sS'bonnie'
p611
I2686
sS'pops'
p612
I1736
sS'incense'
p613
I4743
sS'colors'
p614
I1010
sS'radio'
p615
I850
sS'asia'
p616
I2914
sS'stepping'
p617
I2688
sS'participate'
p618
I2689
sS'nephew'
p619
I2690
sS'buttons'
p620
I4189
sS'enjoyed'
p621
I196
sS"timandkatie'striptoscoops"
p622
I2692
sS'lessons'
p623
I1546
sS'witnesses'
p624
I2693
sS'judges'
p625
I2694
sS'busy'
p626
I1267
sS'clicked'
p627
I2695
sS'proposed'
p628
I1828
sS'cousins'
p629
I1764
sS'weekends'
p630
I1738
sS'symphonic'
p631
I2698
sS'paradefloat'
p632
I2700
sS'bush'
p633
I2701
sS'touched'
p634
I1739
sS'rich'
p635
I743
sS'pursuing'
p636
I2702
sS'folder'
p637
I2704
sS'rice'
p638
I1268
sS'sells'
p639
I2819
sS'sporting'
p640
I2705
sS'rica'
p641
I2706
sS'wearing'
p642
I567
sS'do'
p643
I117
sS'kidneybeans'
p644
I2707
sS'dj'
p645
I2708
sS'thecriminal'
p646
I2709
sS'colorful'
p647
I2710
sS'conduct'
p648
I2711
sS'stop'
p649
I210
sS'newjob'
p650
I1741
sS'legs'
p651
I1472
sS'coast'
p652
I2712
sS'francinepaintshernails'
p653
I2713
sS'haunted'
p654
I1188
sS'cookinglessons'
p655
I2714
sS'thefall'
p656
I4772
sS'wedding'
p657
I1148
sS'report'
p658
I568
sS'triptothedentist'
p659
I2572
sS'nasty'
p660
I2716
sS'quarters'
p661
I4155
sS'undressed'
p662
I2717
sS'nurse'
p663
I1011
sS'sandy'
p664
I4913
sS'baseballgame'
p665
I2718
sS'earn'
p666
I1270
sS'switched'
p667
I3687
sS'bar'
p668
I1271
sS'17'
p669
I2015
sS'covering'
p670
I1746
sS'nicely'
p671
I1747
sS"erik'saddiction"
p672
I2722
sS'licking'
p673
I2723
sS'public'
p674
I3734
sS'bag'
p675
I629
sS'bad'
p676
I365
sS'dianaross'
p677
I2724
sS'piggy'
p678
I1749
sS'shots'
p679
I2725
sS'larrybuysahat'
p680
I2726
sS'horatioburnshistongueoncoffee'
p681
I2856
sS'steak'
p682
I1273
sS'steal'
p683
I1012
sS'ears'
p684
I1750
sS'playstation'
p685
I2728
sS'blew'
p686
I1274
sS'decides'
p687
I434
sS'fair'
p688
I1275
sS'oscargoesforarun'
p689
I2729
sS'roberto'
p690
I4567
sS'applauded'
p691
I2731
sS'testing'
p692
I2732
sS'outgoing'
p693
I2733
sS'roadmap'
p694
I2734
sS'thefight'
p695
I2735
sS'decided'
p696
I24
sS'infinitejestfootnotes'
p697
I2736
sS'result'
p698
I1013
sS'fail'
p699
I2738
sS'miserable'
p700
I1577
sS'noodles'
p701
I1579
sS'hammer'
p702
I1752
sS'best'
p703
I144
sS'subject'
p704
I1753
sS'pete'
p705
I2741
sS'said'
p706
I112
sS'temptation'
p707
I2743
sS'lots'
p708
I851
sS'dishonesty'
p709
I4158
sS'away'
p710
I205
sS'shaved'
p711
I2744
sS'grandmother'
p712
I963
sS'mud'
p713
I1276
sS'mug'
p714
I2746
sS'score'
p715
I506
sS'olympics'
p716
I1014
sS'melissa'
p717
I1277
sS'pets'
p718
I4642
sS'taryn'
p719
I2748
sS'sorts'
p720
I1266
sS'approach'
p721
I1755
sS'360'
p722
I2750
sS'theswan'
p723
I3578
sS'discipline'
p724
I2136
sS'we'
p725
I66
sS'handles'
p726
I4245
sS'specialty'
p727
I2752
sS'nature'
p728
I1756
sS'rolled'
p729
I1015
sS'fruits'
p730
I2753
sS'however'
p731
I391
sS'boss'
p732
I175
sS'nightmares'
p733
I1278
sS'retirement'
p734
I1757
sS'wear'
p735
I1016
sS'dancerecital'
p736
I4614
sS'poisoning'
p737
I2755
sS'cousin'
p738
I1279
sS'picking'
p739
I2756
sS'weddingmusician'
p740
I2757
sS'roller'
p741
I2758
sS'kitchen'
p742
I630
sS'suggested'
p743
I1758
sS'received'
p744
I1017
sS'accident'
p745
I1208
sS'cot'
p746
I2760
sS'meredith'
p747
I1759
sS'country'
p748
I507
sS'ill'
p749
I1760
sS'jenniferwassick'
p750
I4285
sS'jelly'
p751
I2761
sS'against'
p752
I744
sS'amazing'
p753
I3205
sS'negative'
p754
I2762
sS'layered'
p755
I2763
sS'games'
p756
I300
sS'planned'
p757
I1280
sS'tentliving'
p758
I2764
sS'brad'
p759
I745
sS'argue'
p760
I2766
sS'asked'
p761
I167
sS'robyn'
p762
I3715
sS'gushed'
p763
I2767
sS'exhibit'
p764
I1762
sS'tough'
p765
I2768
sS'newcareer'
p766
I2769
sS'had'
p767
I16
sS'chefkira'
p768
I2770
sS'height'
p769
I2771
sS'karen'
p770
I1281
sS'twoshades'
p771
I4297
sS'paused'
p772
I3144
sS'tony'
p773
I1763
sS'blonde'
p774
I2772
sS'thesnake'
p775
I2773
sS'bradgetsadate'
p776
I4923
sS'walkingatnight'
p777
I2439
sS'tasted'
p778
I2322
sS'conference'
p779
I2775
sS'putt'
p780
I2776
sS'bathroom'
p781
I392
sS'petty'
p782
I2777
sS'angel'
p783
I2778
sS'puts'
p784
I1283
sS'eager'
p785
I319
sS'union'
p786
I746
sS'thekingsdefeat'
p787
I4527
sS'three'
p788
I1284
sS'been'
p789
I87
sS'.'
p790
I4
sS'confident'
p791
I747
sS'beer'
p792
I2780
sS'much'
p793
I148
sS'stadium'
p794
I1285
sS'expected'
p795
I2781
sS'bridgettattendsvacationbibleschool'
p796
I2782
sS'entered'
p797
I2783
sS'lovely'
p798
I853
sS'warmth'
p799
I2784
sS'riley'
p800
I2785
sS'threw'
p801
I631
sS'website'
p802
I2786
sS'life'
p803
I268
sS'thenewhappiness'
p804
I2787
sS"roberto'sjobsearch"
p805
I2788
sS'relaxing'
p806
I1765
sS'attacked'
p807
I1996
sS'drugs'
p808
I2765
sS'accidently'
p809
I2791
sS'streetvendor'
p810
I2792
sS'worker'
p811
I1286
sS'ariana'
p812
I2793
sS'maturewood'
p813
I3821
sS'dave'
p814
I2185
sS'lift'
p815
I1448
sS'thefrenemy'
p816
I2797
sS'lawngettingmowed'
p817
I2798
sS'child'
p818
I1287
sS'catch'
p819
I282
sS'clam'
p820
I4664
sS'worked'
p821
I256
sS'lionel'
p822
I2799
sS'applied'
p823
I569
sS'13th'
p824
I2800
sS'save'
p825
I1299
sS'tank'
p826
I1288
sS'sounded'
p827
I3667
sS'sampson'
p828
I1416
sS'prestigious'
p829
I3303
sS'pokemonhunters'
p830
I2803
sS'professionally'
p831
I1766
sS'air'
p832
I632
sS'remi'
p833
I1767
sS'evening'
p834
I1527
sS'melted'
p835
I2804
sS'teachers'
p836
I1289
sS'applies'
p837
I2805
sS'aid'
p838
I2807
sS'voice'
p839
I570
sS'flooding'
p840
I1290
sS'leaves'
p841
I509
sS'procedure'
p842
I2445
sS'mistake'
p843
I435
sS'videogameswithmyfriends'
p844
I2809
sS'thebank'
p845
I2810
sS'seven'
p846
I1769
sS'climbed'
p847
I1019
sS'played'
p848
I220
sS'is'
p849
I49
sS'sushi'
p850
I994
sS'sanitizer'
p851
I2812
sS'it'
p852
I14
sS'tease'
p853
I1770
sS'traffictroubles'
p854
I2813
sS'player'
p855
I389
sS'continues'
p856
I2815
sS'eighteen'
p857
I1771
sS'brake'
p858
I1772
sS'cans'
p859
I748
sS'jest'
p860
I1773
sS'in'
p861
I21
sS'conditioner'
p862
I854
sS'newhouse'
p863
I2817
sS'thetalkshow'
p864
I2818
sS'mouse'
p865
I1774
sS'id'
p866
I1660
sS'if'
p867
I221
sS'grown'
p868
I1020
sS'recover'
p869
I3306
sS'bottles'
p870
I1775
sS'thebestman'
p871
I3407
sS'perform'
p872
I1776
sS'things'
p873
I436
sS'make'
p874
I68
sS'poodlepride'
p875
I4863
sS'wound'
p876
I1777
sS'amount'
p877
I1292
sS'forehead'
p878
I1778
sS'clint'
p879
I4142
sS'healthier'
p880
I2822
sS'belly'
p881
I855
sS'discussed'
p882
I4411
sS'dvds'
p883
I2823
sS'avoids'
p884
I2824
sS'shoveling'
p885
I2825
sS'several'
p886
I2826
sS"melody'striptotheaquarium"
p887
I4195
sS'toasted'
p888
I1779
sS'stevelearnstocope'
p889
I2827
sS'wheel'
p890
I1293
sS'moose'
p891
I1690
sS'jerked'
p892
I2829
sS'smoke'
p893
I2446
sS'nic'
p894
I2830
sS'ella'
p895
I2831
sS'published'
p896
I2832
sS'hang'
p897
I2833
sS'clung'
p898
I2834
sS'rain'
p899
I1022
sS'hand'
p900
I984
sS'delight'
p901
I1780
sS'cathy'
p902
I668
sS'afraid'
p903
I4697
sS'nomorerules'
p904
I2837
sS'kim'
p905
I856
sS'jealous'
p906
I1291
sS'kia'
p907
I269
sS'heretodaygonetomorrow'
p908
I2838
sS'blamed'
p909
I2839
sS'tune'
p910
I2840
sS'kid'
p911
I510
sS'butter'
p912
I2841
sS'kept'
p913
I393
sS'lucas'
p914
I1296
sS'charlie'
p915
I857
sS'failing'
p916
I1297
sS'kyle'
p917
I1307
sS'ocean'
p918
I1024
sS'client'
p919
I633
sS'mother'
p920
I320
sS'the'
p921
I6
sS'800'
p922
I2669
sS'spencer'
p923
I1265
sS'plaque'
p924
I2848
sS'left'
p925
I511
sS'snowman'
p926
I2849
sS'eyebrows'
p927
I2850
sS"julia'snewfriends"
p928
I2853
sS'just'
p929
I301
sS'athletic'
p930
I2854
sS'photo'
p931
I634
sS'laptop'
p932
I1298
sS'sleepy'
p933
I749
sS'assigned'
p934
I1783
sS'openingday'
p935
I2727
sS'human'
p936
I2857
sS'nedwasbad'
p937
I3762
sS'yes'
p938
I2860
sS'yet'
p939
I2862
sS'previous'
p940
I1754
sS'wandered'
p941
I2864
sS'plansruined'
p942
I2865
sS'ham'
p943
I1784
sS'candidate'
p944
I2866
sS'dinnermistake'
p945
I2867
sS'photographer'
p946
I858
sS'ease'
p947
I1785
sS'slices'
p948
I2868
sS'josh'
p949
I508
sS'counted'
p950
I4443
sS'pharmacy'
p951
I1786
sS'johnmakesasandwich'
p952
I2870
sS'thecruise'
p953
I1787
sS'brainstorming'
p954
I2871
sS'board'
p955
I512
sS'prison'
p956
I2873
sS'johnnie'
p957
I3886
sS'contestant'
p958
I2874
sS'has'
p959
I145
sS'hat'
p960
I1788
sS'theghost'
p961
I2875
sS'gave'
p962
I270
sS'maxhasaverygooddog'
p963
I2876
sS'thankfully'
p964
I2877
sS"justin'snewflower"
p965
I2878
sS'vanessa'
p966
I1025
sS'newvideogame'
p967
I2879
sS'breaks'
p968
I2880
sS"dog'sbite"
p969
I2881
sS'joanna'
p970
I2882
sS'possible'
p971
I2883
sS'attractiongonewrong'
p972
I2884
sS'caps'
p973
I1789
sS'boxes'
p974
I2885
sS'suffering'
p975
I2843
sS'jimmyandtimmy'
p976
I2886
sS'wanting'
p977
I1860
sS'shadow'
p978
I2887
sS'unique'
p979
I1300
sS'handissues'
p980
I4545
sS'dreams'
p981
I1301
sS'apart'
p982
I1791
sS'county'
p983
I1792
sS'martha'
p984
I4594
sS'slowlaptop'
p985
I2890
sS'gift'
p986
I1793
sS'bobby'
p987
I437
sS'cooler'
p988
I1794
sS'iguanaandthegreens'
p989
I2892
sS'manual'
p990
I2893
sS'50'
p991
I859
sS'niels'
p992
I2894
sS'xbox'
p993
I1026
sS'specific'
p994
I2505
sS'informative'
p995
I2896
sS'designing'
p996
I2897
sS'majored'
p997
I2898
sS'bobbywasalmostlate'
p998
I2899
sS'officer'
p999
I860
sS'night'
p1000
I222
sS'hung'
p1001
I2900
sS'security'
p1002
I635
sS'nannyandgrandpa'
p1003
I2902
sS'cooled'
p1004
I2903
sS'cancelled'
p1005
I4784
sS'attorney'
p1006
I2906
sS'right'
p1007
I1795
sS'dean'
p1008
I1308
sS'creek'
p1009
I2907
sS'deal'
p1010
I271
sS'people'
p1011
I366
sS'understand'
p1012
I4934
sS'successfully'
p1013
I1302
sS'proudly'
p1014
I1027
sS'ironically'
p1015
I3320
sS'dead'
p1016
I572
sS'jennifer'
p1017
I2909
sS'born'
p1018
I1796
sS'donald'
p1019
I2910
sS'myfirstgirlfriend'
p1020
I3321
sS'scrabble'
p1021
I2911
sS'election'
p1022
I2912
sS'winds'
p1023
I3718
sS'escape'
p1024
I1028
sS'forest'
p1025
I4424
sS'guess'
p1026
I2913
sS'tripped'
p1027
I2915
sS'thecheckersgame'
p1028
I2895
sS'cooper'
p1029
I2916
sS'theatre'
p1030
I2917
sS'for'
p1031
I18
sS'bottom'
p1032
I1799
sS'purple'
p1033
I1800
sS'anewjob'
p1034
I2918
sS'thecampingtrip'
p1035
I2919
sS'ice'
p1036
I396
sS'creative'
p1037
I1802
sS'everything'
p1038
I1303
sS'rollerderbyteam'
p1039
I2920
sS'asking'
p1040
I2921
sS'landscape'
p1041
I2923
sS'denied'
p1042
I2924
sS'christmas'
p1043
I321
sS'heartbroken'
p1044
I2926
sS'neatly'
p1045
I2399
sS'cora'
p1046
I1804
sS'energy'
p1047
I1805
sS'dunkin'
p1048
I2928
sS'xander'
p1049
I1848
sS'corn'
p1050
I1304
sS'trampoline'
p1051
I3081
sS'outdoor'
p1052
I4213
sS'kickball'
p1053
I1806
sS'speak'
p1054
I4833
sS'ivan'
p1055
I2931
sS'beautysalon'
p1056
I2932
sS'graduated'
p1057
I756
sS'ketchuponfries'
p1058
I2935
sS'plug'
p1059
I2936
sS'breaded'
p1060
I2937
sS'flossed'
p1061
I2938
sS'diner'
p1062
I1306
sS'dollars'
p1063
I466
sS'months'
p1064
I343
sS'o'
p1065
I2939
sS'overslept'
p1066
I2940
sS'alligator'
p1067
I2461
sS'dinner'
p1068
I197
sS'dined'
p1069
I2941
sS'afternoon'
p1070
I636
sS'rotted'
p1071
I4360
sS'beyonceconcert'
p1072
I2943
sS'thewaterpark'
p1073
I2411
sS'curry'
p1074
I2945
sS'hospital'
p1075
I165
sS'bath'
p1076
I2946
sS'coins'
p1077
I1809
sS'instantlydisgusted'
p1078
I2861
sS'bethgoesfishing'
p1079
I2951
sS'float'
p1080
I1810
sS'delighted'
p1081
I573
sS'son'
p1082
I186
sS'down'
p1083
I198
sS'thankful'
p1084
I2952
sS'tomandmelissa'
p1085
I2953
sS'thepresent'
p1086
I2954
sS'jenn'
p1087
I1811
sS'old'
p1088
I234
sS'cafeteria'
p1089
I2955
sS'frightened'
p1090
I1812
sS'particularly'
p1091
I4315
sS'often'
p1092
I417
sS'strangely'
p1093
I2956
sS'maturelady'
p1094
I2957
sS'cleared'
p1095
I2958
sS'crowd'
p1096
I637
sS'medal'
p1097
I1582
sS'tennis'
p1098
I861
sS'knowing'
p1099
I4657
sS'weakequipment'
p1100
I2960
sS'inspected'
p1101
I1309
sS'fight'
p1102
I588
sS'avail'
p1103
I1813
sS'stuck'
p1104
I2115
sS'way'
p1105
I113
sS'jane'
p1106
I283
sS'music'
p1107
I363
sS'was'
p1108
I7
sS'war'
p1109
I394
sS'leading'
p1110
I2961
sS'happy'
p1111
I59
sS'jellyjam'
p1112
I4606
sS'head'
p1113
I751
sS'form'
p1114
I2963
sS'offer'
p1115
I1310
sS'attempted'
p1116
I1311
sS'becoming'
p1117
I862
sS'fireworks'
p1118
I2964
sS'leilani'
p1119
I1815
sS'floorboard'
p1120
I2967
sS'failure'
p1121
I1503
sS'melanie'
p1122
I1432
sS'needles'
p1123
I2969
sS'uncle'
p1124
I574
sS'ambitious'
p1125
I2593
sS'astonished'
p1126
I2971
sS'placement'
p1127
I4608
sS'removed'
p1128
I1312
sS'true'
p1129
I1817
sS'thesolo'
p1130
I2973
sS'emil'
p1131
I2974
sS"timmy'snewfishtank"
p1132
I2975
sS'sermons'
p1133
I2469
sS'inside'
p1134
I1313
sS'fills'
p1135
I1314
sS'attached'
p1136
I2976
sS'lips'
p1137
I4192
sS'feelingscrush'
p1138
I4435
sS'until'
p1139
I1178
sS'crystal'
p1140
I1315
sS'veterinarian'
p1141
I2979
sS'lenny'
p1142
I3327
sS'daddy'
p1143
I1316
sS'average'
p1144
I3329
sS'<unk>'
p1145
I1
sS"amelia'striptodisneyworld"
p1146
I2984
sS'horses'
p1147
I2985
sS'proud'
p1148
I272
sS'classic'
p1149
I2986
sS'stronger'
p1150
I1818
sS'mariawaits'
p1151
I2987
sS'tournament'
p1152
I639
sS'cane'
p1153
I2988
sS'textbook'
p1154
I1943
sS'evidence'
p1155
I1317
sS'sometime'
p1156
I2901
sS'worklunch'
p1157
I2991
sS'promised'
p1158
I1031
sS'fashioned'
p1159
I2992
sS'curious'
p1160
I1156
sS'accounting'
p1161
I2993
sS'ship'
p1162
I2994
sS'mrs'
p1163
I881
sS'check'
p1164
I467
sS'hay'
p1165
I2996
sS'pipe'
p1166
I2997
sS'vista'
p1167
I2998
sS'skipandmarygoaround'
p1168
I2999
sS'faithful'
p1169
I3000
sS'thepizzaparty'
p1170
I3001
sS'floor'
p1171
I640
sS'agreeing'
p1172
I3002
sS'when'
p1173
I39
sS'danrunsamarathon'
p1174
I4615
sS'handed'
p1175
I1819
sS'tim'
p1176
I123
sS'setting'
p1177
I3004
sS'terribletest'
p1178
I3005
sS'holding'
p1179
I1751
sS'papers'
p1180
I1820
sS'test'
p1181
I163
sS'tie'
p1182
I1821
sS'troubleinschool'
p1183
I4200
sS'smell'
p1184
I1319
sS'roll'
p1185
I1320
sS'frustration'
p1186
I4875
sS'scored'
p1187
I1822
sS'picture'
p1188
I514
sS"'s"
p1189
I1823
sS'brothers'
p1190
I1824
sS'toad'
p1191
I3007
sS'why'
p1192
I711
sS'football'
p1193
I893
sS'dota'
p1194
I2795
sS'update'
p1195
I3009
sS"ryan'sriddle"
p1196
I3011
sS'fell'
p1197
I223
sS"grassisn'talwaysgreener"
p1198
I3012
sS'maureen'
p1199
I1825
sS'professional'
p1200
I3334
sS'enjoyable'
p1201
I3243
sS'pierced'
p1202
I1742
sS'weekend'
p1203
I863
sS'died'
p1204
I1322
sS'babysitting'
p1205
I1826
sS'jones'
p1206
I3014
sS'francine'
p1207
I4852
sS'longer'
p1208
I515
sS'customerservice'
p1209
I3016
sS'potato'
p1210
I3017
sS'guitarlessons'
p1211
I1827
sS'landed'
p1212
I1829
sS'daily'
p1213
I770
sS'jacket'
p1214
I1323
sS'classmate'
p1215
I2000
sS'time'
p1216
I34
sS'serious'
p1217
I1324
sS'mydisneybag'
p1218
I4622
sS'babysteps'
p1219
I3020
sS'stacks'
p1220
I3021
sS'paced'
p1221
I3022
sS'songs'
p1222
I1830
sS'neighbors'
p1223
I576
sS'detective'
p1224
I3336
sS'dinosaurparty'
p1225
I3023
sS'coach'
p1226
I1032
sS'managed'
p1227
I302
sS'lemons'
p1228
I2575
sS'chain'
p1229
I3025
sS'impression'
p1230
I2852
sS'dance'
p1231
I752
sS'skip'
p1232
I1325
sS'rob'
p1233
I1326
sS'excellent'
p1234
I2472
sS'rod'
p1235
I3027
sS'maxine'
p1236
I2068
sS'hawaii'
p1237
I1033
sS'laura'
p1238
I864
sS'yapping'
p1239
I3029
sS'manager'
p1240
I395
sS'mile'
p1241
I3030
sS'marion'
p1242
I1831
sS'microwave'
p1243
I1801
sS'grateful'
p1244
I284
sS'skiing'
p1245
I3031
sS'battle'
p1246
I3032
sS'milo'
p1247
I1832
sS'chair'
p1248
I1327
sS'prop'
p1249
I4204
sS'milk'
p1250
I865
sS'vet'
p1251
I1833
sS'disorders'
p1252
I3034
sS'charliehorse'
p1253
I4206
sS"hedoesn'twanttogotocollege"
p1254
I3036
sS'flash'
p1255
I1834
sS'father'
p1256
I179
sS'prom'
p1257
I1328
sS'answered'
p1258
I1329
sS'finally'
p1259
I84
sS'praised'
p1260
I3038
sS'missedthepoint'
p1261
I3039
sS'thedishes'
p1262
I4208
sS'energyefficient'
p1263
I3341
sS'rebecca'
p1264
I3042
sS'shoot'
p1265
I1835
sS'smartphone'
p1266
I1836
sS'ticking'
p1267
I4209
sS'thegenius'
p1268
I3044
sS'hannah'
p1269
I3045
sS'recipe'
p1270
I1837
sS'confidence'
p1271
I4241
sS'brownie'
p1272
I1034
sS'choice'
p1273
I535
sS'congregation'
p1274
I3048
sS'vegas'
p1275
I1838
sS'atwork'
p1276
I2719
sS'tanks'
p1277
I3049
sS'kitten'
p1278
I303
sS'cook'
p1279
I516
sS'word'
p1280
I1521
sS'trouble'
p1281
I753
sS'eats'
p1282
I3051
sS'minute'
p1283
I1035
sS'cool'
p1284
I672
sS'peaches'
p1285
I1839
sS'thewatermelon'
p1286
I3053
sS'clouds'
p1287
I3857
sS'signal'
p1288
I4177
sS'did'
p1289
I126
sS'turns'
p1290
I641
sS'goingtochurch'
p1291
I4407
sS'1996'
p1292
I3055
sS'ollie'
p1293
I3056
sS'brother'
p1294
I367
sS'gum'
p1295
I754
sS'forgets'
p1296
I3057
sS'leave'
p1297
I1127
sS'item'
p1298
I1330
sS'bikes'
p1299
I1222
sS'miathemodel'
p1300
I3059
sS'subway'
p1301
I3060
sS'team'
p1302
I119
sS'quick'
p1303
I642
sS'guy'
p1304
I1841
sS'prevent'
p1305
I3061
sS'olympic'
p1306
I1842
sS'talked'
p1307
I539
sS'says'
p1308
I1843
sS'regret'
p1309
I3063
sS'thelake'
p1310
I3064
sS'attic'
p1311
I1844
sS'sigh'
p1312
I3065
sS'discover'
p1313
I1845
sS'sign'
p1314
I866
sS'thefrog'
p1315
I3067
sS'colin'
p1316
I3068
sS'cost'
p1317
I1038
sS'cheapjacket'
p1318
I3069
sS'trisha'
p1319
I1846
sS'davidwantsanewbike'
p1320
I3070
sS'run'
p1321
I322
sS'bake'
p1322
I867
sS'rough'
p1323
I3072
sS'irritated'
p1324
I3073
sS'stressful'
p1325
I1847
sS'barbie'
p1326
I3074
sS'rome'
p1327
I2659
sS'current'
p1328
I3078
sS'300'
p1329
I2821
sS'thetriathlon'
p1330
I3079
sS'goes'
p1331
I1040
sS'supplies'
p1332
I1744
sS'falling'
p1333
I643
sS'ground'
p1334
I2366
sS'filled'
p1335
I644
sS'burn'
p1336
I3831
sS'jury'
p1337
I1332
sS'wrestler'
p1338
I1850
sS'bandwagon'
p1339
I3082
sS'grandparents'
p1340
I1333
sS'funeral'
p1341
I1041
sS'makeup'
p1342
I1249
sS'handyman'
p1343
I3084
sS'french'
p1344
I3085
sS'rug'
p1345
I1851
sS'water'
p1346
I180
sS'snack'
p1347
I1927
sS'baseball'
p1348
I577
sS'tinythecat'
p1349
I3087
sS'alone'
p1350
I606
sS'based'
p1351
I3088
sS'along'
p1352
I1335
sS'teacher'
p1353
I285
sS'change'
p1354
I755
sS'wait'
p1355
I159
sS'box'
p1356
I868
sS'boy'
p1357
I345
sS'pig'
p1358
I4899
sS'sharks'
p1359
I1737
sS'healthy'
p1360
I124
sS'shift'
p1361
I3090
sS'studied'
p1362
I3091
sS'guilty'
p1363
I1336
sS'neighborlykindness'
p1364
I4354
sS'shelia'
p1365
I3092
sS"julie'sbadpizza"
p1366
I3093
sS'trial'
p1367
I1853
sS'accomplished'
p1368
I1854
sS'diagnosed'
p1369
I1855
sS'theappletree'
p1370
I3094
sS'usually'
p1371
I398
sS'bob'
p1372
I168
sS'shook'
p1373
I3095
sS'goingtothebeach'
p1374
I3096
sS'pillow'
p1375
I1856
sS'teenage'
p1376
I1857
sS'love'
p1377
I416
sS'hiking'
p1378
I645
sS'extra'
p1379
I1338
sS'strawberryjelly'
p1380
I3097
sS'overcomingshortcomings'
p1381
I4218
sS'prefer'
p1382
I3099
sS'marked'
p1383
I3100
sS'losing'
p1384
I1807
sS'candice'
p1385
I1339
sS'touchdown'
p1386
I3101
sS'robwenttowork'
p1387
I3103
sS'rarely'
p1388
I1858
sS'recording'
p1389
I4038
sS'market'
p1390
I1340
sS'sweating'
p1391
I1042
sS'darnell'
p1392
I3105
sS'stanvolunteers'
p1393
I3106
sS'working'
p1394
I176
sS'prove'
p1395
I3107
sS'ariel'
p1396
I3108
sS'countrymusicconcert'
p1397
I2947
sS'angry'
p1398
I278
sS'leah'
p1399
I4825
sS'visit'
p1400
I757
sS'tears'
p1401
I3110
sS'angela'
p1402
I3111
sS'sports'
p1403
I1043
sS'hurriedly'
p1404
I2983
sS'live'
p1405
I1912
sS'wood'
p1406
I2309
sS'andy'
p1407
I286
sS'iphone'
p1408
I2607
sS'memory'
p1409
I3115
sS'candidates'
p1410
I4635
sS'eighty'
p1411
I3116
sS'today'
p1412
I468
sS'intently'
p1413
I1342
sS'dismay'
p1414
I3117
sS'entrance'
p1415
I2162
sS'kerry'
p1416
I1343
sS"noah'sarches"
p1417
I3119
sS'conductor'
p1418
I3120
sS'faith'
p1419
I4220
sS'club'
p1420
I1044
sS"sam'stest"
p1421
I3122
sS'claus'
p1422
I3123
sS'cashier'
p1423
I870
sS'chocolate'
p1424
I1862
sS'everywhere'
p1425
I1863
sS'amelia'
p1426
I1537
sS"jimmy'spie"
p1427
I4788
sS'ophelia'
p1428
I2181
sS'fly'
p1429
I1045
sS'monstertruckrally'
p1430
I3125
sS'graphic'
p1431
I3126
sS'anything'
p1432
I690
sS'decked'
p1433
I3127
sS'beers'
p1434
I3128
sS'car'
p1435
I97
sS'originally'
p1436
I3129
sS'pretend'
p1437
I1865
sS'flu'
p1438
I3130
sS'thebonus'
p1439
I3798
sS'jude'
p1440
I1046
sS'cat'
p1441
I224
sS'reviews'
p1442
I3132
sS'wallet'
p1443
I1544
sS'judy'
p1444
I758
sS'printing'
p1445
I3134
sS'can'
p1446
I114
sS'cam'
p1447
I1345
sS'adayattheraces'
p1448
I3135
sS'growing'
p1449
I1047
sS'making'
p1450
I646
sS'interstate'
p1451
I3355
sS'pickle'
p1452
I3136
sS'ribs'
p1453
I3137
sS'rufus'
p1454
I1867
sS'nearest'
p1455
I1346
sS'crazy'
p1456
I3138
sS'theparrot'
p1457
I3139
sS'jillsnewsweater'
p1458
I2965
sS'figure'
p1459
I1048
sS'december'
p1460
I1868
sS'awesome'
p1461
I3142
sS'coastertime'
p1462
I3143
sS'confused'
p1463
I871
sS'agent'
p1464
I1347
sS'soup'
p1465
I3133
sS'topic'
p1466
I2176
sS'heard'
p1467
I146
sS'stroke'
p1468
I3145
sS'gabby'
p1469
I3146
sS'performed'
p1470
I1185
sS'buyingacomputer'
p1471
I3147
sS'pond'
p1472
I1447
sS'spa'
p1473
I3149
sS'stole'
p1474
I1049
sS'fearofdogs'
p1475
I2493
sS'listens'
p1476
I3150
sS'pink'
p1477
I1050
sS'swung'
p1478
I3801
sS'winter'
p1479
I1558
sS'jen'
p1480
I4926
sS'lestertrimshisbeard'
p1481
I3154
sS'secured'
p1482
I2747
sS'thebully'
p1483
I1870
sS'ping'
p1484
I1871
sS'magazine'
p1485
I3156
sS'freezer'
p1486
I3157
sS'likelystorythat'
p1487
I3158
sS'write'
p1488
I872
sS'dogbiscuits'
p1489
I4459
sS'sunday'
p1490
I1348
sS'bonded'
p1491
I3802
sS'themess'
p1492
I3161
sS'elephant'
p1493
I1872
sS'beans'
p1494
I4226
sS'teasers'
p1495
I4346
sS'breakaleg'
p1496
I3163
sS'photography'
p1497
I4644
sS'backsliding'
p1498
I3164
sS'allergicreaction'
p1499
I3884
sS'map'
p1500
I3165
sS'staying'
p1501
I1873
sS'jazz'
p1502
I3362
sS'laundry'
p1503
I3166
sS'skates'
p1504
I3167
sS'may'
p1505
I3168
sS'max'
p1506
I873
sS'granddaughter'
p1507
I3169
sS'spot'
p1508
I759
sS'needs'
p1509
I4058
sS'timcontrolshisgamblingproblem'
p1510
I3866
sS'disgusted'
p1511
I4528
sS'bonfires'
p1512
I3172
sS'crashed'
p1513
I1052
sS'membership'
p1514
I3173
sS'birthday'
p1515
I255
sS'mad'
p1516
I469
sS'jasonbecomesalawyer'
p1517
I3174
sS'date'
p1518
I368
sS'such'
p1519
I1054
sS'guys'
p1520
I2256
sS'grow'
p1521
I439
sS'mushrooms'
p1522
I4484
sS'man'
p1523
I107
sS'classroom'
p1524
I3177
sS'stress'
p1525
I874
sS'natural'
p1526
I1573
sS'remember'
p1527
I578
sS'johnson'
p1528
I1958
sS'conscious'
p1529
I1874
sS'maybe'
p1530
I3180
sS'thelightningstorm'
p1531
I3181
sS'criminal'
p1532
I4469
sS'ones'
p1533
I3182
sS'so'
p1534
I30
sS'crept'
p1535
I3184
sS'snowed'
p1536
I3692
sS'tall'
p1537
I3186
sS'kurt'
p1538
I3187
sS'pulled'
p1539
I579
sS'talk'
p1540
I1875
sS'typical'
p1541
I3189
sS'refund'
p1542
I875
sS'serving'
p1543
I1349
sS'shoes'
p1544
I369
sS'seeing'
p1545
I2154
sS'pointed'
p1546
I3191
sS'haircut'
p1547
I3192
sS'displayed'
p1548
I3193
sS'years'
p1549
I199
sS'brain'
p1550
I898
sS'shake'
p1551
I3196
sS'argued'
p1552
I3197
sS'cold'
p1553
I647
sS'still'
p1554
I370
sS'hideandseek'
p1555
I3198
sS'birds'
p1556
I1351
sS'tore'
p1557
I3199
sS'avid'
p1558
I1055
sS'apes'
p1559
I3200
sS'police'
p1560
I157
sS'monitor'
p1561
I2296
sS'josie'
p1562
I3202
sS'reluctant'
p1563
I3203
sS'interesting'
p1564
I3204
sS'jim'
p1565
I518
sS'clubbing'
p1566
I2497
sS'maid'
p1567
I3206
sS'window'
p1568
I371
sS'according'
p1569
I3207
sS'melvin'
p1570
I3208
sS'thegarden'
p1571
I3209
sS'farmer'
p1572
I1877
sS'mail'
p1573
I580
sS'hanks'
p1574
I3210
sS'kabobs'
p1575
I3211
sS'happened'
p1576
I1878
sS'evacuated'
p1577
I3212
sS'non'
p1578
I1056
sS'honeymoon'
p1579
I2084
sS'shayla'
p1580
I1352
sS'thenewartteacher'
p1581
I3214
sS'appraised'
p1582
I3215
sS'devastated'
p1583
I3216
sS'snowday'
p1584
I3217
sS'investigated'
p1585
I3218
sS'underneath'
p1586
I1879
sS'interview'
p1587
I497
sS'course'
p1588
I967
sS'half'
p1589
I1353
sS'not'
p1590
I71
sS'now'
p1591
I90
sS'lid'
p1592
I4128
sS'hall'
p1593
I876
sS'nor'
p1594
I1880
sS'gardenharvest'
p1595
I3219
sS'laurahasadaughter'
p1596
I4796
sS'shouted'
p1597
I1882
sS'name'
p1598
I1354
sS'freya'
p1599
I3221
sS'opera'
p1600
I1578
sS'james'
p1601
I323
sS'didn'
p1602
I109
sS'locked'
p1603
I3050
sS'cakepopdisaster'
p1604
I3224
sS'intrigued'
p1605
I3225
sS'rock'
p1606
I1058
sS'scolded'
p1607
I3227
sS'stays'
p1608
I3832
sS'quarter'
p1609
I3228
sS'repaired'
p1610
I648
sS'revere'
p1611
I3229
sS'turtle'
p1612
I519
sS'r'
p1613
I4847
sS'theunfortunatehuntingtrip'
p1614
I3230
sS'sweettooth'
p1615
I3231
sS'fired'
p1616
I520
sS'mexico'
p1617
I1305
sS'badly'
p1618
I1355
sS'ed'
p1619
I1883
sS"brad'scardies"
p1620
I3233
sS'carlahasason'
p1621
I2980
sS'whataday'
p1622
I3236
sS'ex'
p1623
I3238
sS'preaching'
p1624
I3239
sS'year'
p1625
I225
sS"james'job"
p1626
I3240
sS'girl'
p1627
I169
sS'morning'
p1628
I257
sS'pills'
p1629
I3241
sS'amusement'
p1630
I1884
sS'plans'
p1631
I1885
sS'album'
p1632
I3242
sS'living'
p1633
I581
sS'medications'
p1634
I1886
sS'container'
p1635
I1887
sS'opened'
p1636
I1059
sS'3rd'
p1637
I3171
sS'space'
p1638
I1356
sS'profit'
p1639
I3244
sS'thejobinterview'
p1640
I2485
sS'firstdayofschool'
p1641
I1888
sS'abroad'
p1642
I2652
sS'rent'
p1643
I4214
sS'looking'
p1644
I252
sS'seriously'
p1645
I3246
sS'jaime'
p1646
I3247
sS'internet'
p1647
I1357
sS'formula'
p1648
I1889
sS'stitches'
p1649
I1699
sS'chewinggum'
p1650
I3248
sS'shows'
p1651
I1359
sS'maneuver'
p1652
I3249
sS'attended'
p1653
I1360
sS'monster'
p1654
I1060
sS'hairdresser'
p1655
I3250
sS'cars'
p1656
I1891
sS'seventh'
p1657
I3251
sS'teddybears'
p1658
I3252
sS'quite'
p1659
I1892
sS'bringing'
p1660
I3253
sS'worries'
p1661
I3376
sS'demanding'
p1662
I3254
sS'carl'
p1663
I1894
sS'miley'
p1664
I3255
sS'brooke'
p1665
I2454
sS'cough'
p1666
I3257
sS'earning'
p1667
I4705
sS'seventy'
p1668
I3258
sS'card'
p1669
I470
sS'care'
p1670
I399
sS'training'
p1671
I1061
sS'reply'
p1672
I3080
sS'couldn'
p1673
I1062
sS'language'
p1674
I1896
sS'waiter'
p1675
I3259
sS'discussing'
p1676
I3260
sS'thirties'
p1677
I4547
sS'thewar'
p1678
I2483
sS'modest'
p1679
I1665
sS'replacement'
p1680
I4810
sS'turn'
p1681
I1240
sS'lindsey'
p1682
I1897
sS'place'
p1683
I583
sS'massive'
p1684
I877
sS'teddiscoversatopicofinterest'
p1685
I3816
sS'swing'
p1686
I1898
sS'vineyard'
p1687
I3263
sS'promotion'
p1688
I761
sS'thecheese'
p1689
I3264
sS'think'
p1690
I584
sS'waited'
p1691
I762
sS'first'
p1692
I77
sS'blind'
p1693
I1361
sS'cheese'
p1694
I3265
sS'flying'
p1695
I3266
sS'saving'
p1696
I878
sS'airline'
p1697
I3268
sS'rachel'
p1698
I1680
sS'crib'
p1699
I3271
sS'one'
p1700
I41
sS'clumsy'
p1701
I3272
sS'long'
p1702
I79
sS'suspended'
p1703
I1064
sS'spanish'
p1704
I1065
sS'carry'
p1705
I2623
sS'rmv'
p1706
I3274
sS'ring'
p1707
I1066
sS'drove'
p1708
I187
sS'open'
p1709
I879
sS'tomorrow'
p1710
I1067
sS'engineer'
p1711
I1248
sS'rented'
p1712
I440
sS'city'
p1713
I372
sS'little'
p1714
I106
sS'ian'
p1715
I500
sS'checked'
p1716
I1528
sS'silent'
p1717
I3276
sS'newfamily'
p1718
I3277
sS'goingupinranks'
p1719
I3278
sS'caught'
p1720
I400
sS'slept'
p1721
I763
sS'haggle'
p1722
I3279
sS'jackgetssnacks'
p1723
I3280
sS'worryaboutmexico'
p1724
I3281
sS'wing'
p1725
I4915
sS'2'
p1726
I1364
sS'terrifying'
p1727
I3282
sS'stuffed'
p1728
I764
sS'convention'
p1729
I1069
sS'janicelosesit'
p1730
I3283
sS'desmond'
p1731
I3284
sS'white'
p1732
I1070
sS'friend'
p1733
I80
sS'eyes'
p1734
I1365
sS'dived'
p1735
I3381
sS'mostly'
p1736
I3286
sS'that'
p1737
I33
sS'season'
p1738
I1366
sS'released'
p1739
I1367
sS'soren'
p1740
I1901
sS'gin'
p1741
I3287
sS'longhair'
p1742
I4426
sS'copy'
p1743
I765
sS'slipandslide'
p1744
I3288
sS'than'
p1745
I236
sS'boyfriend'
p1746
I471
sS'11'
p1747
I1904
sS'10'
p1748
I1740
sS'television'
p1749
I3290
sS':'
p1750
I3291
sS'unfortunately'
p1751
I1368
sS'sailing'
p1752
I1905
sS'16'
p1753
I1748
sS'donaldbreakshisskateboard'
p1754
I3294
sS'daviddropstheweight'
p1755
I3295
sS'trafficjam'
p1756
I3296
sS'karate'
p1757
I3297
sS'rehab'
p1758
I3298
sS'future'
p1759
I766
sS'apples'
p1760
I1369
sS'venture'
p1761
I3299
sS'were'
p1762
I23
sS'cards'
p1763
I880
sS'college'
p1764
I290
sS'counselor'
p1765
I2759
sS'prefers'
p1766
I3301
sS'sophia'
p1767
I1906
sS'browser'
p1768
I1907
sS'and'
p1769
I11
sS'gathering'
p1770
I1908
sS'ana'
p1771
I1909
sS'sam'
p1772
I287
sS'movingout'
p1773
I2779
sS'ann'
p1774
I1371
sS'confessed'
p1775
I1910
sS'turned'
p1776
I346
sS'argument'
p1777
I3302
sS'sad'
p1778
I78
sS'ant'
p1779
I1911
sS'medical'
p1780
I2045
sS'say'
p1781
I1071
sS'slowjogger'
p1782
I4165
sS'theram'
p1783
I3304
sS'allen'
p1784
I3305
sS'breakfast'
p1785
I401
sS'harley'
p1786
I2515
sS'saw'
p1787
I101
sS'any'
p1788
I768
sS'marathon'
p1789
I1913
sS'sat'
p1790
I373
sS'zoe'
p1791
I3307
sS'speakers'
p1792
I1372
sS'sport'
p1793
I3389
sS'pekingese'
p1794
I3308
sS'offering'
p1795
I3188
sS'allison'
p1796
I2816
sS'answering'
p1797
I3311
sS'theclown'
p1798
I3312
sS'ideas'
p1799
I1072
sS'shocked'
p1800
I769
sS'zoo'
p1801
I472
sS'note'
p1802
I1073
sS'dining'
p1803
I3313
sS'thecourtcase'
p1804
I3314
sS'christiantakesataxi'
p1805
I3315
sS'take'
p1806
I91
sS'online'
p1807
I402
sS'bailey'
p1808
I1374
sS'performance'
p1809
I1790
sS'pranks'
p1810
I2889
sS'blunt'
p1811
I3318
sS'channel'
p1812
I1914
sS'surf'
p1813
I1915
sS'urge'
p1814
I3319
sS'begin'
p1815
I2908
sS'sure'
p1816
I1797
sS'pain'
p1817
I304
sS'trace'
p1818
I1916
sS'normal'
p1819
I1375
sS'tornado'
p1820
I1376
sS'price'
p1821
I649
sS'knew'
p1822
I521
sS'waterskiing'
p1823
I4785
sS'paid'
p1824
I374
sS'falls'
p1825
I1377
sS'joeygetsthejob'
p1826
I2520
sS'printed'
p1827
I3323
sS'sheets'
p1828
I2948
sS'connor'
p1829
I1565
sS'pair'
p1830
I305
sS'knee'
p1831
I1919
sS'beth'
p1832
I522
sS'inserted'
p1833
I3325
sS'grueling'
p1834
I3326
sS'michelle'
p1835
I1378
sS'lawn'
p1836
I523
sS'especially'
p1837
I1074
sS'room'
p1838
I249
sS'considered'
p1839
I3328
sS'dream'
p1840
I288
sS'seafood'
p1841
I2982
sS'later'
p1842
I585
sS'steady'
p1843
I1920
sS'hungry'
p1844
I397
sS'gracefully'
p1845
I3330
sS'tooth'
p1846
I575
sS'eggsfromabove'
p1847
I3395
sS'jitters'
p1848
I3332
sS'sunset'
p1849
I1075
sS'pattern'
p1850
I4670
sS'joeplaysbasketball'
p1851
I3333
sS'hear'
p1852
I1704
sS'senior'
p1853
I3335
sS'costlymistake'
p1854
I3015
sS'surface'
p1855
I4739
sS'shop'
p1856
I344
sS'walking'
p1857
I127
sS'wishingforsnow'
p1858
I3337
sS'shot'
p1859
I882
sS'cherry'
p1860
I3338
sS'thecheat'
p1861
I3339
sS'show'
p1862
I525
sS'cheat'
p1863
I1921
sS'bullied'
p1864
I3869
sS'misted'
p1865
I3041
sS'cheap'
p1866
I441
sS'fifty'
p1867
I1922
sS'discovered'
p1868
I883
sS'bright'
p1869
I1688
sS'therapist'
p1870
I1924
sS'marcusmeetssomeone'
p1871
I4257
sS'hotemergency'
p1872
I2872
sS'corner'
p1873
I526
sS'aggressive'
p1874
I3345
sS'foodpoisoning'
p1875
I4717
sS'imagined'
p1876
I1925
sS'maine'
p1877
I3346
sS'fifth'
p1878
I1926
sS'crashing'
p1879
I2205
sS'slow'
p1880
I1334
sS'scaredblackman'
p1881
I4207
sS'nodded'
p1882
I2684
sS'bandaged'
p1883
I3918
sS'stained'
p1884
I3348
sS'suzywantsatoy'
p1885
I3447
sS'enough'
p1886
I273
sS'luckywinner'
p1887
I3349
sS'crime'
p1888
I586
sS'desired'
p1889
I3350
sS'only'
p1890
I587
sS'going'
p1891
I47
sS'black'
p1892
I347
sS'hockey'
p1893
I1077
sS'theboattrip'
p1894
I3351
sS'maxinedrinkswine'
p1895
I3353
sS'caroline'
p1896
I3354
sS'rated'
p1897
I4553
sS'pumpkin'
p1898
I1866
sS'cooed'
p1899
I3356
sS'puddlejumping'
p1900
I3357
sS'correctly'
p1901
I3358
sS'thejail'
p1902
I3359
sS'get'
p1903
I45
sS'theweirdphotograph'
p1904
I3361
sS'routine'
p1905
I1199
sS'upinsmokes'
p1906
I4800
sS'hailey'
p1907
I3363
sS'tricked'
p1908
I3364
sS'nearly'
p1909
I1380
sS'lighter'
p1910
I3366
sS'progress'
p1911
I3367
sS'neither'
p1912
I4675
sS'joked'
p1913
I3369
sS'artist'
p1914
I650
sS'thefundraiser'
p1915
I4331
sS'tractor'
p1916
I3370
sS'borrow'
p1917
I3371
sS'ahmad'
p1918
I3372
sS'worried'
p1919
I324
sS'jokes'
p1920
I1928
sS'miles'
p1921
I1169
sS'predicted'
p1922
I1381
sS'landlord'
p1923
I1382
sS'mapped'
p1924
I3375
sS'bekah'
p1925
I1893
sS'dough'
p1926
I1929
sS'finishing'
p1927
I1078
sS'pants'
p1928
I3377
sS'where'
p1929
I527
sS'husband'
p1930
I289
sS'ignored'
p1931
I1930
sS'lovedthem'
p1932
I3378
sS'picnic'
p1933
I1383
sS'concert'
p1934
I442
sS'ken'
p1935
I1203
sS'physically'
p1936
I3379
sS'fries'
p1937
I4261
sS'marnie'
p1938
I3380
sS'committed'
p1939
I3360
sS'toomuch'
p1940
I3484
sS'stylist'
p1941
I2098
sS'christhelawyer'
p1942
I3383
sS'noconnection'
p1943
I3384
sS'asleep'
p1944
I767
sS'sean'
p1945
I1384
sS'parking'
p1946
I3104
sS'joeyhastrouble'
p1947
I3387
sS'stanley'
p1948
I3388
sS'surgery'
p1949
I1607
sS'theconcert'
p1950
I2978
sS'thegoaldress'
p1951
I4238
sS'professed'
p1952
I3390
sS'totino'
p1953
I3190
sS'surfaces'
p1954
I3392
sS'dexter'
p1955
I3393
sS'satisfying'
p1956
I1933
sS'parent'
p1957
I3408
sS'camping'
p1958
I884
sS'farmers'
p1959
I3170
sS'ways'
p1960
I3331
sS'jumped'
p1961
I443
sS'fascinated'
p1962
I3396
sS'sites'
p1963
I3402
sS'forecast'
p1964
I1935
sS'cd'
p1965
I3398
sS'bigbox'
p1966
I4078
sS'outside'
p1967
I422
sS'permissionslip'
p1968
I3399
sS'permeated'
p1969
I3400
sS'rollerskatingadventure'
p1970
I3401
sS'enjoys'
p1971
I3403
sS'reading'
p1972
I1079
sS'across'
p1973
I1385
sS'travels'
p1974
I3058
sS'stuart'
p1975
I4227
sS'notice'
p1976
I3405
sS'longisland'
p1977
I3406
sS'jobs'
p1978
I651
sS'august'
p1979
I2995
sS'allstonbrightonparade'
p1980
I3394
sS'screen'
p1981
I1386
sS'timmy'
p1982
I771
sS'inseparable'
p1983
I1992
sS'guitar'
p1984
I885
sS'caraccident'
p1985
I3411
sS'spare'
p1986
I3412
sS'hebelievedinhim'
p1987
I3413
sS"ellie'sdancerecital"
p1988
I3410
sS'come'
p1989
I652
sS'21'
p1990
I3842
sS'recovered'
p1991
I2131
sS'useless'
p1992
I3416
sS'mona'
p1993
I3417
sS'many'
p1994
I192
sS'quiet'
p1995
I886
sS'contract'
p1996
I1936
sS'flipped'
p1997
I1272
sS's'
p1998
I29
sS'loudly'
p1999
I1387
sS'berry'
p2000
I3473
sS'reluctantly'
p2001
I3419
sS'wheels'
p2002
I3421
sS'foodfight'
p2003
I4267
sS'groundhog'
p2004
I3423
sS'backpack'
p2005
I1388
sS'evict'
p2006
I3424
sS'nearby'
p2007
I1938
sS'riddle'
p2008
I3425
sS'among'
p2009
I3426
sS'butterflymagic'
p2010
I3427
sS'afterwards'
p2011
I1389
sS'cancer'
p2012
I653
sS'color'
p2013
I1080
sS'pot'
p2014
I3428
sS'jeans'
p2015
I887
sS'ants'
p2016
I3429
sS'satisfaction'
p2017
I3430
sS'twin'
p2018
I773
sS'pom'
p2019
I3431
sS'dalebreaksdown'
p2020
I2435
sS'learning'
p2021
I1939
sS'polo'
p2022
I3433
sS'supervisor'
p2023
I3434
sS'poll'
p2024
I3435
sS'precious'
p2025
I4688
sS'boat'
p2026
I403
sS'math'
p2027
I1390
sS'turkey'
p2028
I3436
sS'better'
p2029
I267
sS'realitytv'
p2030
I3414
sS'teammate'
p2031
I1940
sS'teddy'
p2032
I1980
sS'renovating'
p2033
I3222
sS'barry'
p2034
I226
sS'keys'
p2035
I3440
sS'informed'
p2036
I1392
sS'vacation'
p2037
I306
sS'mark'
p2038
I325
sS'breath'
p2039
I783
sS'combined'
p2040
I3442
sS'rancher'
p2041
I1942
sS'dessie'
p2042
I3445
sS'mary'
p2043
I654
sS'500'
p2044
I3446
sS'wants'
p2045
I655
sS'direction'
p2046
I2934
sS'shopping'
p2047
I404
sS'income'
p2048
I4287
sS'offered'
p2049
I348
sS'formed'
p2050
I3448
sS'andrew'
p2051
I774
sS'birdhouse'
p2052
I4865
sS'dangerous'
p2053
I4655
sS'tiger'
p2054
I3449
sS'photos'
p2055
I1393
sS'spills'
p2056
I3450
sS'wake'
p2057
I1394
sS'cleats'
p2058
I2989
sS'asks'
p2059
I4668
sS'suspected'
p2060
I3451
sS'careful'
p2061
I775
sS'those'
p2062
I1526
sS'case'
p2063
I776
sS'myself'
p2064
I1081
sS'these'
p2065
I3455
sS'sauce'
p2066
I2063
sS'chinatown'
p2067
I1944
sS'cash'
p2068
I1082
sS'buena'
p2069
I4878
sS'trick'
p2070
I3456
sS'cast'
p2071
I888
sS'cure'
p2072
I2847
sS'newspaper'
p2073
I528
sS'situation'
p2074
I1945
sS'shops'
p2075
I3458
sS'landslide'
p2076
I3459
sS'invited'
p2077
I715
sS'underfoot'
p2078
I3977
sS'pro'
p2079
I3461
sS'troy'
p2080
I1923
sS'betterasfriends'
p2081
I4274
sS'reunitedatthereunion'
p2082
I4725
sS'eventually'
p2083
I842
sS"jill'ssurprise"
p2084
I3462
sS'purse'
p2085
I589
sS'coffee'
p2086
I274
sS'thebotoxparty'
p2087
I3463
sS'sleeping'
p2088
I1396
sS'middle'
p2089
I656
sS'someone'
p2090
I1123
sS'punched'
p2091
I1083
sS'tedbreaksdown'
p2092
I4696
sS'whimpering'
p2093
I1946
sS'heels'
p2094
I3465
sS'return'
p2095
I3850
sS'toothache'
p2096
I2049
sS'restroom'
p2097
I772
sS'technology'
p2098
I3467
sS'ivy'
p2099
I908
sS'worry'
p2100
I1947
sS'ceilingfan'
p2101
I3292
sS'bags'
p2102
I3468
sS'different'
p2103
I275
sS'greedyhippos'
p2104
I3469
sS'theparkingspace'
p2105
I3470
sS'doctor'
p2106
I149
sS'pay'
p2107
I473
sS'horatio'
p2108
I1948
sS'bowl'
p2109
I1449
sS'tour'
p2110
I1949
sS'same'
p2111
I529
sS'trip'
p2112
I206
sS'skittles'
p2113
I4589
sS'johnsellshishouse'
p2114
I4381
sS'speech'
p2115
I1085
sS'coworkers'
p2116
I1950
sS'stepped'
p2117
I1086
sS'finallytallenough'
p2118
I2523
sS'events'
p2119
I889
sS'pan'
p2120
I890
sS'disappointment'
p2121
I4382
sS'week'
p2122
I181
sS'noble'
p2123
I3474
sS'finish'
p2124
I1398
sS'tunafiend'
p2125
I3475
sS'closest'
p2126
I777
sS'thedinner'
p2127
I3477
sS'defy'
p2128
I3478
sS'arden'
p2129
I1951
sS'driver'
p2130
I530
sS'drives'
p2131
I1399
sS'weed'
p2132
I3479
sS'director'
p2133
I1952
sS'running'
p2134
I474
sS'fruit'
p2135
I658
sS'statue'
p2136
I3480
sS'climbing'
p2137
I3482
sS'totally'
p2138
I1953
sS'tradition'
p2139
I3483
sS'perfectly'
p2140
I4750
sS'complained'
p2141
I1400
sS'jimbuysahouse'
p2142
I2578
sS'drain'
p2143
I3485
sS'theater'
p2144
I590
sS'horacereplacesabulb'
p2145
I3486
sS'mudrungroup'
p2146
I3487
sS'no'
p2147
I170
sS"marcy'scookie"
p2148
I3488
sS'dolphincruise'
p2149
I3489
sS'severe'
p2150
I1955
sS'without'
p2151
I1401
sS'solve'
p2152
I3490
sS'launched'
p2153
I2808
sS'bottle'
p2154
I1402
sS'genie'
p2155
I3492
sS'model'
p2156
I1403
sS'reward'
p2157
I1404
sS'eyeing'
p2158
I3493
sS'amazed'
p2159
I659
sS'charged'
p2160
I1956
sS'summer'
p2161
I475
sS'janet'
p2162
I3391
sS'sprayed'
p2163
I1957
sS'noah'
p2164
I3495
sS'being'
p2165
I660
sS'money'
p2166
I135
sS'sights'
p2167
I1959
sS'adjusted'
p2168
I4699
sS'rest'
p2169
I1405
sS'sethgetsmarried'
p2170
I3496
sS'schools'
p2171
I2555
sS'kill'
p2172
I1088
sS'actor'
p2173
I3498
sS'harrison'
p2174
I3499
sS'positions'
p2175
I3500
sS'touch'
p2176
I1960
sS'theschoolbus'
p2177
I3220
sS'flavor'
p2178
I3502
sS'speed'
p2179
I1406
sS'captured'
p2180
I3503
sS'halfway'
p2181
I1961
sS'jamonbread'
p2182
I3504
sS'asatisfyingsolution'
p2183
I3875
sS'death'
p2184
I3505
sS'grounded'
p2185
I591
sS'application'
p2186
I608
sS'stuartbuysabowtie'
p2187
I3506
sS'botanicalgarden'
p2188
I3507
sS'except'
p2189
I3508
sS'adventurous'
p2190
I3858
sS'blog'
p2191
I1407
sS'instrument'
p2192
I3509
sS'gardening'
p2193
I2143
sS'pile'
p2194
I445
sS'4'
p2195
I3510
sS'thebigtest'
p2196
I3511
sS'halftime'
p2197
I3512
sS'struck'
p2198
I3513
sS'sucked'
p2199
I3514
sS'pill'
p2200
I1962
sS'ross'
p2201
I1408
sS'swim'
p2202
I446
sS'starving'
p2203
I1963
sS'jake'
p2204
I661
sS'crusty'
p2205
I3515
sS'around'
p2206
I349
sS'sticky'
p2207
I3516
sS'marcus'
p2208
I3859
sS'read'
p2209
I452
sS'spaghettisauce'
p2210
I3517
sS'stung'
p2211
I1966
sS'landscapingbusiness'
p2212
I3518
sS'birthdayparty'
p2213
I3519
sS'fridge'
p2214
I662
sS'dark'
p2215
I1023
sS'scraps'
p2216
I3520
sS'jimwins'
p2217
I3521
sS'traffic'
p2218
I3522
sS'mom'
p2219
I154
sS'holly'
p2220
I3524
sS'world'
p2221
I405
sS'countrybikerides'
p2222
I3525
sS'accepted'
p2223
I1090
sS'lady'
p2224
I934
sS'forecaster'
p2225
I3526
sS'furniture'
p2226
I1967
sS'thecake'
p2227
I3527
sS'hydrated'
p2228
I3528
sS'vending'
p2229
I1968
sS'4thofjuly'
p2230
I3529
sS'pounds'
p2231
I3530
sS'hotel'
p2232
I1471
sS'bracelet'
p2233
I3532
sS'pole'
p2234
I1969
sS'tia'
p2235
I3534
sS'altogether'
p2236
I3735
sS'audience'
p2237
I3535
sS'rachael'
p2238
I3536
sS'halie'
p2239
I1091
sS't'
p2240
I74
sS'replacinganoldcomputer'
p2241
I3537
sS'fully'
p2242
I1092
sS'served'
p2243
I1934
sS'creeped'
p2244
I3539
sS'sharp'
p2245
I3148
sS'scalpel'
p2246
I3540
sS'joking'
p2247
I3541
sS'doll'
p2248
I3542
sS'30'
p2249
I3543
sS'firstjob'
p2250
I4446
sS'pickled'
p2251
I3544
sS'competition'
p2252
I531
sS'chuck'
p2253
I1971
sS'thebigjump'
p2254
I4706
sS'thesurprise'
p2255
I3545
sS'act'
p2256
I4646
sS'stormed'
p2257
I1918
sS'fastcar'
p2258
I3547
sS'images'
p2259
I1972
sS'pickles'
p2260
I1973
sS'joan'
p2261
I1974
sS'thinks'
p2262
I892
sS'choosingabook'
p2263
I3548
sS"marcy'sbadday"
p2264
I3549
sS'slice'
p2265
I779
sS'mood'
p2266
I1975
sS'cavity'
p2267
I1093
sS'tube'
p2268
I3153
sS'recorded'
p2269
I3551
sS'frantically'
p2270
I1977
sS'stops'
p2271
I1978
sS'moon'
p2272
I1409
sS'bedtime'
p2273
I3597
sS'ellie'
p2274
I1094
sS'dealership'
p2275
I780
sS'snapped'
p2276
I4845
sS'custody'
p2277
I3552
sS'picks'
p2278
I4144
sS'flourishing'
p2279
I4033
sS'quitting'
p2280
I2184
sS'restoring'
p2281
I2547
sS'freed'
p2282
I3557
sS'felt'
p2283
I158
sS'arrow'
p2284
I3558
sS'business'
p2285
I807
sS'vivian'
p2286
I1979
sS'seconds'
p2287
I3559
sS'manufactured'
p2288
I3560
sS'nails'
p2289
I2293
sS'fitness'
p2290
I3562
sS'francie'
p2291
I3563
sS'tuition'
p2292
I3564
sS'hunt'
p2293
I3565
sS'broken'
p2294
I406
sS"let'splanatrip"
p2295
I3566
sS'janelle'
p2296
I3567
sS'terrified'
p2297
I781
sS'raul'
p2298
I3568
sS'exciting'
p2299
I1223
sS'throw'
p2300
I894
sS'earlier'
p2301
I3569
sS'lambstew'
p2302
I3570
sS'on'
p2303
I28
sS'weatherman'
p2304
I3704
sS'monopoly'
p2305
I3572
sS'ok'
p2306
I3573
sS'ace'
p2307
I3574
sS'package'
p2308
I895
sS'specialclient'
p2309
I4036
sS'of'
p2310
I17
sS'marc'
p2311
I3438
sS'favorite'
p2312
I150
sS'brittany'
p2313
I3576
sS'becky'
p2314
I3365
sS'side'
p2315
I852
sS'tumor'
p2316
I1556
sS'familypests'
p2317
I3439
sS'journey'
p2318
I2300
sS'wolf'
p2319
I1982
sS'stand'
p2320
I1095
sS'neighbor'
p2321
I376
sS'toothpaste'
p2322
I1391
sS'mixed'
p2323
I1983
sS'knocks'
p2324
I2715
sS'philplayssoccer'
p2325
I3581
sS'mean'
p2326
I3582
sS'or'
p2327
I663
sS'road'
p2328
I258
sS'amber'
p2329
I3583
sS'heater'
p2330
I3584
sS'uhaul'
p2331
I3585
sS'protests'
p2332
I3586
sS'smallfish'
p2333
I2891
sS'cara'
p2334
I3588
sS'follows'
p2335
I3589
sS'coupon'
p2336
I3590
sS'communication'
p2337
I3591
sS'image'
p2338
I3592
sS'skilled'
p2339
I1984
sS'earring'
p2340
I3594
sS'cheftasha'
p2341
I4713
sS"john'ssuccess"
p2342
I3595
sS'accounts'
p2343
I3596
sS'jasper'
p2344
I1640
sS"children'sshow"
p2345
I3598
sS'gary'
p2346
I782
sS'elementary'
p2347
I3599
sS'happening'
p2348
I1985
sS'mental'
p2349
I3600
sS'cared'
p2350
I3441
sS'pizzas'
p2351
I3013
sS'log'
p2352
I1412
sS'prepare'
p2353
I1096
sS'area'
p2354
I1986
sS'jollyrancher'
p2355
I3602
sS'there'
p2356
I102
sS"rachel'sphone"
p2357
I3603
sS'shelly'
p2358
I1987
sS'meals'
p2359
I1988
sS'start'
p2360
I350
sS'handcuffed'
p2361
I3604
sS'cats'
p2362
I377
sS'lions'
p2363
I1808
sS'low'
p2364
I896
sS'lot'
p2365
I72
sS'theroadtrip'
p2366
I3606
sS'attends'
p2367
I4712
sS'fish'
p2368
I378
sS'onewaytoparis'
p2369
I3607
sS'allergic'
p2370
I1413
sS"miley'scaristoast"
p2371
I4168
sS'pottery'
p2372
I4563
sS'exasperated'
p2373
I3609
sS'complete'
p2374
I593
sS'hoda'
p2375
I3610
sS'kittens'
p2376
I3611
sS'reduce'
p2377
I1126
sS'printer'
p2378
I3612
sS'pitcher'
p2379
I3613
sS'allan'
p2380
I2192
sS'fallingdown'
p2381
I4593
sS'cycle'
p2382
I3616
sS'mice'
p2383
I3617
sS'trying'
p2384
I214
sS'with'
p2385
I25
sS'buying'
p2386
I669
sS'faster'
p2387
I1414
sS'pull'
p2388
I532
sS'rush'
p2389
I476
sS'october'
p2390
I3620
sS'arranged'
p2391
I3621
sS'improved'
p2392
I899
sS'rage'
p2393
I1991
sS'greeted'
p2394
I2835
sS'weirdhorse'
p2395
I3622
sS'tiny'
p2396
I1612
sS'japan'
p2397
I3386
sS'dirty'
p2398
I1993
sS'suitcase'
p2399
I3626
sS'organize'
p2400
I1702
sS'grass'
p2401
I1994
sS'rescued'
p2402
I2168
sS'glenda'
p2403
I1995
sS'gone'
p2404
I291
sS'hated'
p2405
I1614
sS'videos'
p2406
I1206
sS'taste'
p2407
I1417
sS'certain'
p2408
I3630
sS'hosted'
p2409
I2571
sS'am'
p2410
I1160
sS'al'
p2411
I2307
sS'deep'
p2412
I784
sS'an'
p2413
I115
sS'imagination'
p2414
I3633
sS'as'
p2415
I141
sS'ensuing'
p2416
I3634
sS'together'
p2417
I191
sS'burrito'
p2418
I3262
sS'girlfriend'
p2419
I237
sS'watched'
p2420
I1418
sS'nerd'
p2421
I1419
sS'film'
p2422
I1420
sS'fill'
p2423
I616
sS'again'
p2424
I327
sS'stumbled'
p2425
I1098
sS'heather'
p2426
I1421
sS"jane'snewjob"
p2427
I3636
sS'rubbed'
p2428
I3637
sS'payday'
p2429
I3638
sS'retiring'
p2430
I3639
sS'collin'
p2431
I3640
sS'drivers'
p2432
I3641
sS'storage'
p2433
I3642
sS'weeded'
p2434
I3643
sS'thevacuum'
p2435
I3385
sS'field'
p2436
I827
sS'2001'
p2437
I3646
sS'5'
p2438
I3647
sS'gambling'
p2439
I1422
sS'you'
p2440
I477
sS'puppy'
p2441
I362
sS'thousand'
p2442
I1999
sS'gaining'
p2443
I3648
sS"jessie's40th"
p2444
I3649
sS'poop'
p2445
I3650
sS'damion'
p2446
I3019
sS'regardless'
p2447
I3651
sS'students'
p2448
I594
sS'teeth'
p2449
I1423
sS"justin'sinternship"
p2450
I4684
sS'overreact'
p2451
I3652
sS'squash'
p2452
I3653
sS'gifts'
p2453
I2001
sS'walker'
p2454
I2171
sS'hardware'
p2455
I3655
sS'important'
p2456
I664
sS'freshmanfears'
p2457
I3656
sS'poodle'
p2458
I3657
sS'terry'
p2459
I2346
sS'chris'
p2460
I1424
sS'cheapthrills'
p2461
I3660
sS'puked'
p2462
I3661
sS'redecorating'
p2463
I3662
sS'finals'
p2464
I3663
sS'pool'
p2465
I259
sS'building'
p2466
I533
sS'booked'
p2467
I3664
sS'natalie'
p2468
I2002
sS'remote'
p2469
I785
sS'calls'
p2470
I2003
sS'wife'
p2471
I142
sS"mary'sbook"
p2472
I4662
sS'tanner'
p2473
I3665
sS'oprah'
p2474
I3666
sS'mask'
p2475
I2004
sS'data'
p2476
I3175
sS'crowdsourcing'
p2477
I3112
sS'seat'
p2478
I3382
sS'dramatic'
p2479
I3669
sS'mass'
p2480
I3670
sS'adam'
p2481
I3671
sS'schoolplayaudition'
p2482
I3672
sS'shuttered'
p2483
I4122
sS'prettypictures'
p2484
I4306
sS'starting'
p2485
I596
sS'psychic'
p2486
I3673
sS'growling'
p2487
I2005
sS'all'
p2488
I37
sS'forget'
p2489
I3675
sS'chinese'
p2490
I2006
sS'sadheisgone'
p2491
I3676
sS'donated'
p2492
I3677
sS'thekiss'
p2493
I3678
sS'off-road'
p2494
I3679
sS'allergy'
p2495
I2007
sS'dollar'
p2496
I2008
sS'worms'
p2497
I2009
sS'freedonutday'
p2498
I3680
sS'month'
p2499
I665
sS'disc'
p2500
I3681
sS'deadline'
p2501
I2010
sS'infestation'
p2502
I4721
sS'christmastree'
p2503
I2415
sS'summerrain'
p2504
I3683
sS'revealed'
p2505
I3684
sS'children'
p2506
I1426
sS'emily'
p2507
I1099
sS'shattered'
p2508
I2011
sS'apartment'
p2509
I991
sS'peter'
p2510
I4816
sS'ron'
p2511
I3686
sS'hunting'
p2512
I1427
sS'tv'
p2513
I666
sS'regulars'
p2514
I3026
sS"molly'sbigraise"
p2515
I3632
sS'thegaragesale'
p2516
I3688
sS'to'
p2517
I5
sS'aaron'
p2518
I1100
sS'program'
p2519
I1428
sS'robber'
p2520
I3454
sS'scratch'
p2521
I4309
sS'health'
p2522
I1039
sS'enjoying'
p2523
I1101
sS'lostdog'
p2524
I4630
sS'activities'
p2525
I786
sS'woman'
p2526
I328
sS'appointment'
p2527
I1429
sS'returned'
p2528
I902
sS'sitting'
p2529
I612
sS'very'
p2530
I35
sS'horror'
p2531
I3694
sS'detention'
p2532
I2014
sS'fat'
p2533
I1103
sS'focus'
p2534
I3028
sS'vera'
p2535
I3695
sS'aware'
p2536
I3696
sS'chores'
p2537
I3697
sS'fan'
p2538
I903
sS'surprise'
p2539
I1321
sS'awful'
p2540
I2530
sS'ticket'
p2541
I534
sS'difference'
p2542
I3699
sS'icecreamsamples'
p2543
I3700
sS'toobad'
p2544
I4251
sS'abandoned'
p2545
I3701
sS'elated'
p2546
I2018
sS"dean'ssong"
p2547
I3702
sS'washing'
p2548
I2019
sS'cable'
p2549
I1430
sS'thesale'
p2550
I3703
sS'mudpies'
p2551
I2564
sS'thepharmacy'
p2552
I4106
sS'laying'
p2553
I3452
sS'joined'
p2554
I2570
sS'grandfather'
p2555
I3705
sS'large'
p2556
I171
sS'dinosaur'
p2557
I2022
sS'sand'
p2558
I3706
sS'skate'
p2559
I3707
sS'soccergame'
p2560
I3708
sS'harry'
p2561
I1433
sS'small'
p2562
I597
sS'lisa'
p2563
I2023
sS'smith'
p2564
I2327
sS'spooked'
p2565
I3709
sS'ninetieth'
p2566
I3710
sS'kickballleague'
p2567
I3853
sS'withoutajob'
p2568
I3711
sS'cookies'
p2569
I667
sS'neighborhood'
p2570
I2024
sS'portable'
p2571
I3712
sS'ten'
p2572
I1706
sS'theparty'
p2573
I3714
sS'tea'
p2574
I2025
sS'streets'
p2575
I1434
sS'ted'
p2576
I787
sS'bankruptwithinminutes'
p2577
I3627
sS'unable'
p2578
I2026
sS'babyname'
p2579
I3443
sS'knitted'
p2580
I3717
sS'burger'
p2581
I2638
sS'zero'
p2582
I3719
sS'design'
p2583
I1259
sS'lawyer'
p2584
I1435
sS'pass'
p2585
I3721
sS'awhile'
p2586
I3722
sS'further'
p2587
I1104
sS'scrambledeggs'
p2588
I3723
sS'ribbon'
p2589
I3725
sS'bass'
p2590
I3726
sS'what'
p2591
I238
sS'nighter'
p2592
I3727
sS'stood'
p2593
I904
sS'darkness'
p2594
I1639
sS'richard'
p2595
I2027
sS'clock'
p2596
I1105
sS'thegocart'
p2597
I3729
sS'sun'
p2598
I2028
sS'section'
p2599
I4666
sS'lawrence'
p2600
I1464
sS'anniversary'
p2601
I3731
sS'crush'
p2602
I2029
sS'reeled'
p2603
I3732
sS'learned'
p2604
I448
sS'method'
p2605
I2031
sS'hasn'
p2606
I1437
sS'full'
p2607
I906
sS'christian'
p2608
I1814
sS'savvy'
p2609
I3736
sS'thegroundhog'
p2610
I3864
sS'bowtie'
p2611
I3737
sS'ma'
p2612
I3738
sS'unprofessional'
p2613
I3739
sS'loose'
p2614
I3740
sS"jason'sgym"
p2615
I3741
sS'answers'
p2616
I1106
sS'revenge'
p2617
I3742
sS'hours'
p2618
I200
sS'wild'
p2619
I2681
sS'vacations'
p2620
I4525
sS'jonas'
p2621
I2030
sS'ramon'
p2622
I3744
sS'startingrunning'
p2623
I3745
sS'trunk'
p2624
I3746
sS'directions'
p2625
I3747
sS"don'tswimindecember"
p2626
I3748
sS'buzzing'
p2627
I4157
sS'strong'
p2628
I3749
sS'tigey'
p2629
I2032
sS'stacychangeshermind'
p2630
I2789
sS'search'
p2631
I478
sS'naturesurprise'
p2632
I3751
sS'colored'
p2633
I3752
sS'kindergartengraduation'
p2634
I3753
sS'debate'
p2635
I3077
sS'myshoppingtrip'
p2636
I3755
sS'bongo'
p2637
I1716
sS'logged'
p2638
I3757
sS'spraypaint'
p2639
I2720
sS'experience'
p2640
I1438
sS'airport'
p2641
I329
sS'base'
p2642
I1439
sS'lasagna'
p2643
I3759
sS'horrified'
p2644
I1107
sS'within'
p2645
I4229
sS'pick'
p2646
I479
sS'action'
p2647
I1295
sS'justinorderspizza'
p2648
I3760
sS'options'
p2649
I1108
sS'alice'
p2650
I4185
sS'trainer'
p2651
I1440
sS'thebabysitter'
p2652
I2034
sS'jeffwinsitall'
p2653
I3761
sS'followed'
p2654
I2859
sS'family'
p2655
I92
sS'suddenly'
p2656
I292
sS'transit'
p2657
I3763
sS'emptied'
p2658
I3764
sS'straightened'
p2659
I3765
sS'follower'
p2660
I3730
sS'janegetsabadgrade'
p2661
I3767
sS'trained'
p2662
I3768
sS'toys'
p2663
I1441
sS'pulls'
p2664
I1442
sS'cutfinger'
p2665
I3769
sS'barked'
p2666
I3770
sS'charlesgraduates'
p2667
I3771
sS'attendance'
p2668
I3772
sS'eye'
p2669
I1109
sS'takes'
p2670
I3773
sS'donuts'
p2671
I3774
sS'texting'
p2672
I1443
sS'two'
p2673
I239
sS'vote'
p2674
I3273
sS'chessmastery'
p2675
I3775
sS'pitching'
p2676
I3776
sS'gorgeous'
p2677
I3777
sS'taken'
p2678
I788
sS'injury'
p2679
I1110
sS'thebestwrapper'
p2680
I3778
sS'minor'
p2681
I2036
sS'more'
p2682
I160
sS'teen'
p2683
I2037
sS'flat'
p2684
I1111
sS'door'
p2685
I379
sS'knows'
p2686
I480
sS'grabbing'
p2687
I3779
sS'company'
p2688
I276
sS'dribbled'
p2689
I3780
sS'telephone'
p2690
I2845
sS'motorsports'
p2691
I3782
sS'flag'
p2692
I1112
sS'stick'
p2693
I2038
sS'broke'
p2694
I907
sS'rudeness'
p2695
I3783
sS'known'
p2696
I2039
sS'anxious'
p2697
I3784
sS'thesaxophonist'
p2698
I3785
sS'glad'
p2699
I193
sS'town'
p2700
I598
sS'grill'
p2701
I1444
sS'keeping'
p2702
I3786
sS'hour'
p2703
I2040
sS'johnbuysabike'
p2704
I3788
sS'science'
p2705
I1113
sS"meredith'smistake"
p2706
I3789
sS'guards'
p2707
I2041
sS'mall'
p2708
I1114
sS'sudden'
p2709
I1397
sS'nine'
p2710
I3790
sS'desmondwantstobeastar'
p2711
I3791
sS'morgan'
p2712
I351
sS'learn'
p2713
I194
sS'knocked'
p2714
I2042
sS'dee'
p2715
I1445
sS'history'
p2716
I2043
sS'beautiful'
p2717
I153
sS'nervousness'
p2718
I3792
sS'shark'
p2719
I2044
sS'hamburger'
p2720
I3102
sS'aphids'
p2721
I3794
sS'share'
p2722
I599
sS'ludo'
p2723
I2046
sS'terrible'
p2724
I3797
sS'autumn'
p2725
I2047
sS'pushed'
p2726
I2048
sS'anewstart'
p2727
I3131
sS'minimum'
p2728
I3799
sS'salty'
p2729
I1446
sS'numbers'
p2730
I1115
sS'purchased'
p2731
I1116
sS'station'
p2732
I294
sS'pong'
p2733
I1117
sS'disliked'
p2734
I3151
sS'dress'
p2735
I293
sS'species'
p2736
I3185
sS'botanist'
p2737
I3160
sS'/'
p2738
I3803
sS'!'
p2739
I76
sS'huge'
p2740
I188
sS'triathlon'
p2741
I3804
sS'impulse'
p2742
I3024
sS'goal'
p2743
I380
sS'drained'
p2744
I1118
sS'breaking'
p2745
I3806
sS"sally'scustomerservice"
p2746
I3195
sS'everyday'
p2747
I657
sS'glowing'
p2748
I3809
sS'itoldyouso'
p2749
I2606
sS'speeding'
p2750
I789
sS'theinventionoflying'
p2751
I3823
sS'heathercookstacosforthefirsttime'
p2752
I3811
sS'goingskiing'
p2753
I3812
sS'goat'
p2754
I2050
sS'competed'
p2755
I3813
sS'waved'
p2756
I3814
sS'thecatcher'
p2757
I3815
sS'plant'
p2758
I1119
sS'sandwich'
p2759
I408
sS'okay'
p2760
I909
sS'tried'
p2761
I182
sS'rude'
p2762
I910
sS'advice'
p2763
I790
sS'scouts'
p2764
I2806
sS'brett'
p2765
I2051
sS'replace'
p2766
I4294
sS'plane'
p2767
I911
sS'blood'
p2768
I2052
sS'coming'
p2769
I208
sS'backyard'
p2770
I2053
sS'tacos'
p2771
I3046
sS'authentic'
p2772
I3817
sS'response'
p2773
I3818
sS'frisbee'
p2774
I4917
sS'advertisements'
p2775
I4164
sS'a'
p2776
I8
sS'abe'
p2777
I3728
sS'short'
p2778
I791
sS'brady'
p2779
I3819
sS'orchard'
p2780
I3820
sS'susan'
p2781
I409
sS'onto'
p2782
I3822
sS'quoted'
p2783
I2696
sS'register'
p2784
I3824
sS'rowdy'
p2785
I3825
sS'bugs'
p2786
I1120
sS'volleyball'
p2787
I792
sS"tim'scoffee"
p2788
I3826
sS'ianvisitsdallas'
p2789
I3827
sS'hisfeet'
p2790
I3828
sS'responsibility'
p2791
I2054
sS'hates'
p2792
I2055
sS'egg'
p2793
I1121
sS'playing'
p2794
I94
sS'badgolfgame'
p2795
I3830
sS'help'
p2796
I172
sS'reminded'
p2797
I3471
sS'flowers'
p2798
I1450
sS'advised'
p2799
I2201
sS'soon'
p2800
I410
sS'installed'
p2801
I1122
sS'disabled'
p2802
I2056
sS'thegrahams'
p2803
I3071
sS'paper'
p2804
I671
sS'through'
p2805
I260
sS'reconnect'
p2806
I2057
sS'signs'
p2807
I1451
sS'dozens'
p2808
I3836
sS'smiling'
p2809
I3837
sS'suffer'
p2810
I3838
sS'its'
p2811
I1452
sS'developer'
p2812
I2058
sS'bathtime'
p2813
I3839
sS'style'
p2814
I3840
sS'pens'
p2815
I2930
sS'dina'
p2816
I3795
sS'23'
p2817
I2059
sS'pray'
p2818
I2060
sS'assaulting'
p2819
I3843
sS'sale'
p2820
I2061
sS'christmasday'
p2821
I3844
sS'actually'
p2822
I2062
sS'late'
p2823
I227
sS'parts'
p2824
I3845
sS'laces'
p2825
I3846
sS'symptoms'
p2826
I3437
sS'thenerd'
p2827
I3847
sS'peanuts'
p2828
I3848
sS'travelling'
p2829
I3453
sS'soccer'
p2830
I444
sS'might'
p2831
I1395
sS'ally'
p2832
I1453
sS'fool'
p2833
I2064
sS'wouldn'
p2834
I1454
sS'good'
p2835
I67
sS'stupid'
p2836
I3374
sS'otto'
p2837
I4598
sS'food'
p2838
I99
sS'components'
p2839
I3852
sS'petted'
p2840
I2904
sS'disregarded'
p2841
I3907
sS'blinddate'
p2842
I3854
sS'snowball'
p2843
I3855
sS'olivia'
p2844
I1456
sS'starbucks'
p2845
I4270
sS'anewpet'
p2846
I3856
sS'foot'
p2847
I481
sS'inscribed'
p2848
I3885
sS'hearing'
p2849
I627
sS'reminder'
p2850
I3285
sS'instructions'
p2851
I912
sS'mystery'
p2852
I2065
sS'easily'
p2853
I1964
sS'gets'
p2854
I2066
sS'robbie'
p2855
I1458
sS'pregnant'
p2856
I673
sS'always'
p2857
I95
sS'kayaking'
p2858
I3860
sS'spy'
p2859
I3861
sS'marcovisitsutah'
p2860
I3862
sS'incoherence'
p2861
I4595
sS'habits'
p2862
I1459
sS'stopped'
p2863
I352
sS'thecall'
p2864
I4759
sS'fires'
p2865
I3235
sS'die'
p2866
I1461
sS'found'
p2867
I62
sS'marry'
p2868
I3076
sS'trailer'
p2869
I913
sS'heavy'
p2870
I1462
sS'deathofamarchingband'
p2871
I3863
sS'everyone'
p2872
I600
sS'begged'
p2873
I1125
sS'upstairs'
p2874
I914
sS'weight'
p2875
I536
sS'house'
p2876
I108
sS'tiffany'
p2877
I973
sS'hard'
p2878
I228
sS'haley'
p2879
I1097
sS'idea'
p2880
I537
sS'gun'
p2881
I720
sS'theorchard'
p2882
I3865
sS'oil'
p2883
I2966
sS'allenthepoet'
p2884
I3867
sS'balance'
p2885
I1463
sS'event'
p2886
I2067
sS'really'
p2887
I261
sS'deals'
p2888
I2035
sS'flower'
p2889
I1128
sS'missed'
p2890
I2069
sS'wondered'
p2891
I1129
sS'marcusbuyskhakis'
p2892
I3538
sS'jaspereatsagyro'
p2893
I2645
sS'scoops'
p2894
I2021
sS'robert'
p2895
I601
sS'since'
p2896
I1130
sS'marina'
p2897
I3256
sS'easterbonnets'
p2898
I3870
sS'jolly'
p2899
I3871
sS'trainsetsareboring'
p2900
I3872
sS'acting'
p2901
I3873
sS'settle'
p2902
I1840
sS'safety'
p2903
I1362
sS'hill'
p2904
I2013
sS'resume'
p2905
I3876
sS'print'
p2906
I1132
sS'shortly'
p2907
I3877
sS'issue'
p2908
I3878
sS'highway'
p2909
I674
sS'dunk'
p2910
I3879
sS'nervously'
p2911
I3880
sS'adayofskiing'
p2912
I3881
sS'bully'
p2913
I1133
sS'dirt'
p2914
I1436
sS'firstday'
p2915
I3882
sS'auditions'
p2916
I3289
sS'friday'
p2917
I1465
sS"jude'sburn"
p2918
I3883
sS'horse'
p2919
I538
sS'tutoringjob'
p2920
I3834
sS'houses'
p2921
I3754
sS'reason'
p2922
I1473
sS'basketball'
p2923
I381
sS'cookie'
p2924
I1466
sS'disneyland'
p2925
I3887
sS'imagine'
p2926
I3888
sS'put'
p2927
I110
sS'teach'
p2928
I556
sS'phd'
p2929
I4763
sS'beginning'
p2930
I3054
sS'sidewalk'
p2931
I3892
sS'lag'
p2932
I3893
sS'thrown'
p2933
I1468
sS'jeffbreaksdown'
p2934
I3894
sS'owners'
p2935
I1469
sS'deer'
p2936
I1997
sS'legituni'
p2937
I3895
sS'inspection'
p2938
I4343
sS'loaf'
p2939
I2324
sS'computers'
p2940
I2070
sS'decently'
p2941
I3194
sS'houserenovations'
p2942
I3807
sS'divorce'
p2943
I2077
sS'infinitejest'
p2944
I3899
sS'balletsurprise'
p2945
I3900
sS'fallen'
p2946
I3901
sS'transitgift'
p2947
I4104
sS'feed'
p2948
I2072
sS'formulas'
p2949
I3902
sS'stepmother'
p2950
I3904
sS'slipped'
p2951
I2073
sS'feel'
p2952
I675
sS'headache'
p2953
I4851
sS'bullies'
p2954
I3906
sS'knocking'
p2955
I2074
sS'number'
p2956
I1455
sS'fancy'
p2957
I1457
sS'traveled'
p2958
I3908
sS'feet'
p2959
I3909
sS'fierce'
p2960
I3910
sS'brave'
p2961
I3062
sS'done'
p2962
I353
sS'fees'
p2963
I3047
sS'bland'
p2964
I3912
sS'ironing'
p2965
I3913
sS'miss'
p2966
I482
sS'maple'
p2967
I1470
sS'babydeergoesviral'
p2968
I3494
sS'story'
p2969
I382
sS'temperature'
p2970
I676
sS'jet'
p2971
I2076
sS'script'
p2972
I3916
sS'twenty'
p2973
I2071
sS'5th'
p2974
I3917
sS'gurgled'
p2975
I3903
sS'paint'
p2976
I2078
sS'silya'
p2977
I4742
sS'wonderful'
p2978
I949
sS'roberhadabadday'
p2979
I4837
sS'storm'
p2980
I411
sS'ton'
p2981
I2079
sS'tedbuysacar'
p2982
I3919
sS'hundred'
p2983
I1134
sS'syrup'
p2984
I3920
sS'banana'
p2985
I3921
sS'store'
p2986
I65
sS'lease'
p2987
I3922
sS'paintinglines'
p2988
I3923
sS'selling'
p2989
I916
sS'passed'
p2990
I484
sS'relationship'
p2991
I1135
sS'behind'
p2992
I1379
sS'relieved'
p2993
I485
sS'exploded'
p2994
I3925
sS'jamie'
p2995
I1036
sS'park'
p2996
I229
sS'loosetooth'
p2997
I3926
sS'billgoesshopping'
p2998
I3928
sS'luckily'
p2999
I183
sS'part'
p3000
I2080
sS'doctors'
p3001
I2081
sS'off'
p3002
I147
sS'interviewer'
p3003
I3929
sS'convinced'
p3004
I602
sS'tinybugs'
p3005
I3930
sS'surfboard'
p3006
I3931
sS'king'
p3007
I603
sS'grocery'
p3008
I412
sS'grew'
p3009
I1137
sS'compliments'
p3010
I3932
sS'gotten'
p3011
I2082
sS'lied'
p3012
I2949
sS'grey'
p3013
I3933
sS'levels'
p3014
I3934
sS'rockitlikeyagotit'
p3015
I3935
sS'youth'
p3016
I3936
sS'thecouple'
p3017
I3937
sS'determined'
p3018
I215
sS'supposed'
p3019
I253
sS'insulted'
p3020
I3938
sS'outdoors'
p3021
I3939
sS'thelibrarybook'
p3022
I3940
sS'toward'
p3023
I3941
sS'treated'
p3024
I2083
sS'funnyaccent'
p3025
I3942
sS'dana'
p3026
I1474
sS'booth'
p3027
I1475
sS'technician'
p3028
I4883
sS'deciding'
p3029
I3943
sS'gastricbypasssurgery'
p3030
I3944
sS'fredwearssandals'
p3031
I3083
sS'picked'
p3032
I678
sS"lorrie'sbadday"
p3033
I3245
sS'curling'
p3034
I4453
sS'seth'
p3035
I2085
sS'kissingbooth'
p3036
I3945
sS'disgusting'
p3037
I4672
sS'banging'
p3038
I2595
sS'juice'
p3039
I679
sS'kara'
p3040
I3947
sS'graffiti'
p3041
I3948
sS'lindagetsanewfriend'
p3042
I3949
sS'cleaned'
p3043
I680
sS'aged'
p3044
I3950
sS'theprotest'
p3045
I3951
sS'karl'
p3046
I3952
sS'sell'
p3047
I540
sS'mountain'
p3048
I1136
sS'dancing'
p3049
I3953
sS'superior'
p3050
I4680
sS"kyle'snewbike"
p3051
I3955
sS'self'
p3052
I1476
sS'badknee'
p3053
I3982
sS'couch'
p3054
I1477
sS'lit'
p3055
I2088
sS'also'
p3056
I354
sS'dust'
p3057
I3956
sS'build'
p3058
I917
sS'jessie'
p3059
I3957
sS'finding'
p3060
I3958
sS'birthdaypresent'
p3061
I3959
sS'drinks'
p3062
I3960
sS'maintain'
p3063
I3961
sS'thenavy'
p3064
I3962
sS'liz'
p3065
I1478
sS'relief'
p3066
I3491
sS'play'
p3067
I86
sS'towards'
p3068
I681
sS'thecollegevisit'
p3069
I2550
sS'needle'
p3070
I3965
sS'serve'
p3071
I1876
sS'eggs'
p3072
I793
sS'awonderfulday'
p3073
I2745
sS'reach'
p3074
I1138
sS'unused'
p3075
I3967
sS'most'
p3076
I541
sS'virus'
p3077
I1479
sS'hired'
p3078
I3968
sS'plan'
p3079
I2090
sS'eaten'
p3080
I1522
sS'tips'
p3081
I2430
sS'services'
p3082
I3052
sS'accepting'
p3083
I3972
sS'kay'
p3084
I918
sS'extremely'
p3085
I486
sS'flagfootball'
p3086
I3973
sS'refrigerator'
p3087
I3974
sS'78'
p3088
I3975
sS'rebeccaneedsshoes'
p3089
I3976
sS'bug'
p3090
I1615
sS'windows'
p3091
I1976
sS'sometimes'
p3092
I2160
sS'cover'
p3093
I3979
sS'dentist'
p3094
I682
sS"taryn'slostnecklace"
p3095
I3981
sS'disturbed'
p3096
I3983
sS'artistic'
p3097
I3984
sS'clean'
p3098
I449
sS'anton'
p3099
I4355
sS'brokeengineer'
p3100
I3985
sS'scholarship'
p3101
I3800
sS'billbuysacar'
p3102
I3293
sS'stevensolveshismoneytroubles'
p3103
I3988
sS'lying'
p3104
I3989
sS'marlene'
p3105
I1899
sS'thomas'
p3106
I2092
sS'hyper'
p3107
I3990
sS'golf'
p3108
I413
sS'somewhat'
p3109
I1714
sS'gold'
p3110
I804
sS'swelling'
p3111
I3991
sS'huddled'
p3112
I4329
sS'league'
p3113
I2094
sS'publisher'
p3114
I3750
sS'anoldcarkeepsongoing'
p3115
I3992
sS'brody'
p3116
I3993
sS'theories'
p3117
I3075
sS'businesses'
p3118
I3995
sS'carefully'
p3119
I542
sS'coaster'
p3120
I3996
sS'melody'
p3121
I2191
sS'fine'
p3122
I1480
sS'find'
p3123
I88
sS'blender'
p3124
I3998
sS'opponent'
p3125
I4250
sS'giant'
p3126
I604
sS'believe'
p3127
I3999
sS'laurashavesherhead'
p3128
I4000
sS'constantly'
p3129
I4828
sS'nervous'
p3130
I136
sS'scooter'
p3131
I4001
sS'writer'
p3132
I2820
sS'rotten'
p3133
I2095
sS'failed'
p3134
I2096
sS'randy'
p3135
I2097
sS'thewaffles'
p3136
I4874
sS'fiend'
p3137
I4003
sS'knit'
p3138
I4004
sS'8'
p3139
I4005
sS'luis'
p3140
I4006
sS'sleepingproblems'
p3141
I4007
sS'boarding'
p3142
I4886
sS'tricia'
p3143
I4008
sS'his'
p3144
I13
sS'hit'
p3145
I307
sS'therefore'
p3146
I4009
sS'triple'
p3147
I4115
sS'permission'
p3148
I2944
sS'luke'
p3149
I1481
sS'teams'
p3150
I4298
sS'express'
p3151
I2099
sS'sunny'
p3152
I919
sS'kind'
p3153
I4011
sS'trees'
p3154
I920
sS'cheaper'
p3155
I2100
sS"jeremy'scareer"
p3156
I4012
sS'famous'
p3157
I921
sS'feels'
p3158
I4013
sS'saltypeople'
p3159
I4014
sS'hid'
p3160
I2101
sS'preparing'
p3161
I683
sS'basement'
p3162
I1139
sS'during'
p3163
I795
sS'polaroid'
p3164
I4015
sS'69'
p3165
I4016
sS'him'
p3166
I43
sS'marblefloors'
p3167
I4017
sS'impatiently'
p3168
I3089
sS'keisha'
p3169
I4634
sS'dogtraining'
p3170
I4019
sS'roles'
p3171
I2456
sS'slimy'
p3172
I3497
sS'paddling'
p3173
I4021
sS'cry'
p3174
I922
sS'theamazon'
p3175
I4022
sS'remove'
p3176
I2102
sS'investigate'
p3177
I1140
sS'activity'
p3178
I4023
sS'themissingwallet'
p3179
I4024
sS'corgi'
p3180
I4025
sS'6weekcourse'
p3181
I4026
sS'river'
p3182
I450
sS'guessed'
p3183
I2990
sS'employer'
p3184
I4027
sS'wrote'
p3185
I543
sS'sew'
p3186
I4028
sS'scenery'
p3187
I1141
sS'flea'
p3188
I4481
sS'set'
p3189
I308
sS'art'
p3190
I1142
sS'dump'
p3191
I1483
sS'trackmeet'
p3192
I4029
sS'throwing'
p3193
I1143
sS'enabled'
p3194
I4030
sS'carrying'
p3195
I4031
sS'aaronplaysrugby'
p3196
I4032
sS'see'
p3197
I57
sS'defense'
p3198
I4034
sS'leslie'
p3199
I2103
sS'are'
p3200
I295
sS'sea'
p3201
I4035
sS'polish'
p3202
I3501
sS'close'
p3203
I684
sS'bark'
p3204
I2104
sS'angie'
p3205
I1484
sS'arm'
p3206
I1144
sS'allie'
p3207
I923
sS'feared'
p3208
I4037
sS'project'
p3209
I3608
sS'mario'
p3210
I4223
sS'spirits'
p3211
I4039
sS'expert'
p3212
I2105
sS'movie'
p3213
I130
sS'rufusplaysbaseball'
p3214
I4040
sS'currently'
p3215
I4041
sS'burner'
p3216
I4042
sS'ups'
p3217
I4043
sS'thevacationhouse'
p3218
I4846
sS'fans'
p3219
I1486
sS'won'
p3220
I230
sS'hayley'
p3221
I4044
sS'probably'
p3222
I1589
sS'burned'
p3223
I2106
sS'weekly'
p3224
I4046
sS'jasmin'
p3225
I4047
sS'clerk'
p3226
I4048
sS'rita'
p3227
I2107
sS'foreignfood'
p3228
I4049
sS'europe'
p3229
I2108
sS'nailsalon'
p3230
I4050
sS'rosie'
p3231
I1487
sS'recently'
p3232
I487
sS'missing'
p3233
I924
sS'initially'
p3234
I4051
sS'intimidated'
p3235
I4052
sS'sold'
p3236
I605
sS'attention'
p3237
I685
sS'mailbox'
p3238
I2109
sS'thelilypad'
p3239
I3006
sS'spray'
p3240
I4054
sS'renewed'
p3241
I4055
sS'tyler'
p3242
I4464
sS'ike'
p3243
I2301
sS'thenewword'
p3244
I4831
sS'incredible'
p3245
I4773
sS'pickup'
p3246
I4633
sS'both'
p3247
I262
sS'c'
p3248
I1145
sS'shill'
p3249
I2740
sS'last'
p3250
I251
sS'hesitant'
p3251
I1488
sS'restaurant'
p3252
I201
sS'fiance'
p3253
I1489
sS'barely'
p3254
I1596
sS'yolanda'
p3255
I3781
sS'mcdonald'
p3256
I4061
sS'became'
p3257
I1490
sS'campfire'
p3258
I4829
sS'annie'
p3259
I925
sS'forgotten'
p3260
I1146
sS'focused'
p3261
I926
sS'deserved'
p3262
I4911
sS'whole'
p3263
I296
sS'finds'
p3264
I686
sS'patty'
p3265
I2112
sS'load'
p3266
I4062
sS'liked'
p3267
I128
sS'thelaptop'
p3268
I4063
sS'danced'
p3269
I2113
sS'agoraphobia'
p3270
I4064
sS'headed'
p3271
I558
sS'battery'
p3272
I4065
sS'sweet'
p3273
I1890
sS'loan'
p3274
I4066
sS'community'
p3275
I1491
sS'goldfish'
p3276
I1852
sS'dancer'
p3277
I4068
sS'likes'
p3278
I687
sS'chloe'
p3279
I4069
sS'church'
p3280
I829
sS'slots'
p3281
I4070
sS'complied'
p3282
I2116
sS'jamesbreakshiship'
p3283
I4071
sS'expensive'
p3284
I1492
sS'belt'
p3285
I2117
sS'dui'
p3286
I3796
sS'dogsitting'
p3287
I4073
sS'raise'
p3288
I2118
sS'dogwalker'
p3289
I4571
sS'monthly'
p3290
I4074
sS'create'
p3291
I1493
sS'underage'
p3292
I4075
sS'political'
p3293
I2119
sS'due'
p3294
I4076
sS'mikey'
p3295
I4077
sS'strategy'
p3296
I3810
sS'runner'
p3297
I4079
sS'secret'
p3298
I2120
sS'ireland'
p3299
I4080
sS'stomping'
p3300
I4081
sS'collected'
p3301
I1494
sS'askforit'
p3302
I4082
sS'meeting'
p3303
I1495
sS'woke'
p3304
I277
sS'walter'
p3305
I4083
sS'blankets'
p3306
I3625
sS'lived'
p3307
I1496
sS'flight'
p3308
I928
sS'champion'
p3309
I4085
sS'fire'
p3310
I929
sS'caleb'
p3311
I2644
sS'wheeler'
p3312
I2121
sS'gas'
p3313
I451
sS'themovietheater'
p3314
I4086
sS'thekingwins'
p3315
I4087
sS'else'
p3316
I1147
sS'lotsofexerciseisneeded'
p3317
I4088
sS'fund'
p3318
I4089
sS'whatever'
p3319
I4090
sS'gregseesalion'
p3320
I4091
sS'lives'
p3321
I796
sS'whitney'
p3322
I4092
sS'ricemilk'
p3323
I4093
sS'prices'
p3324
I4094
sS'prototype'
p3325
I4095
sS'despite'
p3326
I1209
sS'instructor'
p3327
I2122
sS'mlb'
p3328
I2391
sS'stolen'
p3329
I1499
sS'look'
p3330
I151
sS'slyly'
p3331
I4097
sS'sundaydrive'
p3332
I4098
sS'frozen'
p3333
I2123
sS'ski'
p3334
I2329
sS'straight'
p3335
I4100
sS'bill'
p3336
I137
sS'batch'
p3337
I990
sS'lonegirl'
p3338
I4101
sS"annie'sdecember"
p3339
I4102
sS'rope'
p3340
I4103
sS'warehouse'
p3341
I3835
sS'while'
p3342
I133
sS'nationalparks'
p3343
I4421
sS'replaced'
p3344
I1149
sS'homework'
p3345
I1605
sS'behavior'
p3346
I4107
sS'fun'
p3347
I184
sS'thepatrol'
p3348
I4108
sS'guide'
p3349
I2124
sS'cages'
p3350
I4110
sS'pack'
p3351
I2125
sS'scheduled'
p3352
I2126
sS'anchor'
p3353
I4111
sS'larger'
p3354
I2127
sS'hoping'
p3355
I1500
sS'heroically'
p3356
I4112
sS'violently'
p3357
I4113
sS'billsbadluck'
p3358
I4114
sS'darrell'
p3359
I2128
sS'stubbornly'
p3360
I2484
sS'ready'
p3361
I209
sS'robin'
p3362
I4116
sS'rid'
p3363
I4117
sS'urinate'
p3364
I3066
sS'shirt'
p3365
I4119
sS'anymore'
p3366
I414
sS'seek'
p3367
I4120
sS'startingschool'
p3368
I3986
sS'fountain'
p3369
I3874
sS'rules'
p3370
I1965
sS'copying'
p3371
I4123
sS'grand'
p3372
I1502
sS'9'
p3373
I4124
sS'nightout'
p3374
I4609
sS'sammy'
p3375
I4818
sS'workoutbuddies'
p3376
I4125
sS'higher'
p3377
I4127
sS'hallway'
p3378
I2566
sS'used'
p3379
I931
sS'classmates'
p3380
I1504
sS'theambulance'
p3381
I4129
sS'ratings'
p3382
I4494
sS'flooded'
p3383
I1505
sS'assignment'
p3384
I4130
sS'thelottery'
p3385
I4131
sS'bobchangeshisdiet'
p3386
I4371
sS'yesterday'
p3387
I546
sS'grilling'
p3388
I4132
sS'stacy'
p3389
I932
sS'icecreamfail'
p3390
I4133
sS'moment'
p3391
I1506
sS'walmart'
p3392
I2132
sS'moving'
p3393
I778
sS'cleaning'
p3394
I4134
sS'baseballgift'
p3395
I2390
sS'janice'
p3396
I933
sS'consulted'
p3397
I4272
sS'thesnowstorm'
p3398
I4137
sS'plate'
p3399
I4138
sS'amy'
p3400
I797
sS'characters'
p3401
I4139
sS'task'
p3402
I4140
sS'picky'
p3403
I4141
sS'older'
p3404
I688
sS'stephanie'
p3405
I2202
sS'cheek'
p3406
I1507
sS'chickens'
p3407
I4143
sS'spent'
p3408
I465
sS'phil'
p3409
I483
sS'person'
p3410
I689
sS'cheer'
p3411
I4145
sS'edge'
p3412
I1150
sS'puppyrace'
p3413
I4146
sS'paramedics'
p3414
I4148
sS'kelly'
p3415
I1151
sS'organization'
p3416
I2134
sS'meanwhile'
p3417
I4010
sS'themessage'
p3418
I4149
sS'spend'
p3419
I1509
sS'chore'
p3420
I4150
sS'cave'
p3421
I4909
sS'listening'
p3422
I3523
sS'liedonsight'
p3423
I3141
sS'leaking'
p3424
I2089
sS'simy'
p3425
I4152
sS'placed'
p3426
I4890
sS'competitive'
p3427
I4154
sS'lester'
p3428
I1269
sS'nightcravings'
p3429
I4156
sS'claws'
p3430
I4659
sS'using'
p3431
I2135
sS'ad'
p3432
I3629
sS'retired'
p3433
I869
sS'</s>'
p3434
I3
sS'injuries'
p3435
I4159
sS'letting'
p3436
I1707
sS'christmasatlast'
p3437
I4160
sS'cut'
p3438
I798
sS'$'
p3439
I1152
sS'tablet'
p3440
I4161
sS'cup'
p3441
I799
sS'fiancee'
p3442
I4162
sS'disappointed'
p3443
I592
sS'workers'
p3444
I1512
sS'channels'
p3445
I4163
sS'kissed'
p3446
I3018
sS'exercising'
p3447
I2137
sS'source'
p3448
I935
sS'parents'
p3449
I125
sS'siblings'
p3450
I3691
sS'crying'
p3451
I1154
sS"jasonwouldn'tgetajob"
p3452
I4167
sS'easter'
p3453
I2802
sS'excited'
p3454
I63
sS'surprised'
p3455
I309
sS'niece'
p3456
I1018
sS'marco'
p3457
I1513
sS'vendor'
p3458
I4169
sS'doors'
p3459
I4170
sS'emergency'
p3460
I1514
sS'big'
p3461
I161
sS'couple'
p3462
I330
sS'laughed'
p3463
I1724
sS'deathofamaple'
p3464
I4172
sS'companies'
p3465
I4173
sS'game'
p3466
I116
sS'jackie'
p3467
I3758
sS'marcy'
p3468
I1515
sS'necessary'
p3469
I3980
sS'bit'
p3470
I1516
sS'projects'
p3471
I2138
sS'formal'
p3472
I2139
sS'd'
p3473
I453
sS'shaped'
p3474
I2140
sS'rides'
p3475
I3481
sS'message'
p3476
I3624
sS'resorted'
p3477
I4178
sS'ignore'
p3478
I1798
sS'continue'
p3479
I4180
sS'scrabblefriends'
p3480
I4181
sS'towday'
p3481
I4182
sS'crawled'
p3482
I2141
sS'popular'
p3483
I2142
sS"halie'scat"
p3484
I4183
sS'theopera'
p3485
I3531
sS'browniethepekingese'
p3486
I4932
sS'sketch'
p3487
I4186
sS'google'
p3488
I4187
sS'partying'
p3489
I1606
sS'parade'
p3490
I1030
sS'brakes'
p3491
I4188
sS'newfriend'
p3492
I3234
sS'absolutely'
p3493
I4190
sS'protein'
p3494
I3466
sS'arrived'
p3495
I415
sS'back'
p3496
I155
sS'bounce'
p3497
I2144
sS'greeting'
p3498
I4191
sS'understood'
p3499
I2145
sS'bouncy'
p3500
I2977
sS'added'
p3501
I1331
sS'nothing'
p3502
I4231
sS'clown'
p3503
I1155
sS'sight'
p3504
I4194
sS'mirror'
p3505
I1431
sS'candle'
p3506
I1318
sS'sprint'
p3507
I3601
sS'lightning'
p3508
I4198
sS'brent'
p3509
I4199
sS'electric'
p3510
I3964
sS'delivered'
p3511
I1518
sS'ursula'
p3512
I4201
sS'swallowed'
p3513
I4202
sS'jewelry'
p3514
I1519
sS'pet'
p3515
I240
sS'decision'
p3516
I331
sS'shall'
p3517
I4203
sS'firstcreditcard'
p3518
I2929
sS'per'
p3519
I1520
sS'debra'
p3520
I3033
sS'flashed'
p3521
I4205
sS'religion'
p3522
I3035
sS'pen'
p3523
I1157
sS'lamarrio'
p3524
I2164
sS'sneakers'
p3525
I3040
sS'sweetwine'
p3526
I3043
sS'haileygoesonvacation'
p3527
I4210
sS'swimlessons'
p3528
I4524
sS'dating'
p3529
I2146
sS'eater'
p3530
I2147
sS'anna'
p3531
I607
sS'laughing'
p3532
I2012
sS'be'
p3533
I42
sS'thebrokenplate'
p3534
I4212
sS'swiftly'
p3535
I3966
sS'eating'
p3536
I162
sS'remembered'
p3537
I1158
sS'longday'
p3538
I4246
sS'martin'
p3539
I2148
sS'fed'
p3540
I1180
sS'refused'
p3541
I1159
sS'datenight'
p3542
I4002
sS'step'
p3543
I1337
sS'bested'
p3544
I4215
sS'chanting'
p3545
I4216
sS'stew'
p3546
I2149
sS'santa'
p3547
I4217
sS"max'sfirstsleepoverparty"
p3548
I3098
sS'lottery'
p3549
I2150
sS'carol'
p3550
I2151
sS'by'
p3551
I100
sS'elderly'
p3552
I2970
sS'mistrust'
p3553
I4219
sS'cranked'
p3554
I3121
sS"frank'sbirthday"
p3555
I4221
sS'friendsinlowplaces'
p3556
I4222
sS'volunteering'
p3557
I1344
sS'netflix'
p3558
I2086
sS'loveoffishes'
p3559
I2855
sS'truck'
p3560
I384
sS'graduation'
p3561
I1161
sS'audible'
p3562
I4224
sS'gregwinsthegame'
p3563
I4225
sS'greets'
p3564
I3162
sS'positive'
p3565
I3109
sS'mouth'
p3566
I2152
sS'missfussy'
p3567
I4228
sS'shiny'
p3568
I2153
sS'thedress'
p3569
I1859
sS'silence'
p3570
I1162
sS'repair'
p3571
I1350
sS'jimmy'
p3572
I691
sS'real'
p3573
I2155
sS'joshgetsawarning'
p3574
I3615
sS'garbage'
p3575
I1523
sS'into'
p3576
I202
sS'sandra'
p3577
I3970
sS'coldsoup'
p3578
I4118
sS'theroommate'
p3579
I3971
sS'steven'
p3580
I4232
sS'dustin'
p3581
I4018
sS'lesson'
p3582
I1163
sS'chirping'
p3583
I4233
sS'unexpectedsquirrel'
p3584
I4234
sS'extrafruit'
p3585
I4235
sS'katie'
p3586
I1358
sS'impressed'
p3587
I2221
sS'marie'
p3588
I4239
sS"clint'scareer"
p3589
I4240
sS'valued'
p3590
I3849
sS'spending'
p3591
I1718
sS'potteryclass'
p3592
I4242
sS'placing'
p3593
I4243
sS'frankdoeshandstands'
p3594
I4244
sS'cherished'
p3595
I3113
sS'fast'
p3596
I418
sS'mariaeatslunch'
p3597
I2942
sS'competitivespirit'
p3598
I4724
sS'suit'
p3599
I4247
sS'forward'
p3600
I1524
sS'bored'
p3601
I692
sS'belonged'
p3602
I4248
sS'spat'
p3603
I3658
sS'philvisitsireland'
p3604
I3114
sS'mountains'
p3605
I1370
sS'himself'
p3606
I419
sS'bingewatching'
p3607
I4184
sS'poster'
p3608
I4253
sS'relaxed'
p3609
I2156
sS'theswimmeet'
p3610
I4254
sS'pastor'
p3611
I1164
sS'hoped'
p3612
I4255
sS'assured'
p3613
I2589
sS'boys'
p3614
I2157
sS'pinballwizard'
p3615
I4256
sS'larry'
p3616
I693
sS'authority'
p3617
I2335
sS'filed'
p3618
I1525
sS'coldest'
p3619
I3343
sS'line'
p3620
I310
sS'brokenhearted'
p3621
I4258
sS'theshampoo'
p3622
I4565
sS'junior'
p3623
I4259
sS'raising'
p3624
I2159
sS'ahelpinghand'
p3625
I4236
sS'newheadphones'
p3626
I4260
sS'talents'
p3627
I1816
sS'up'
p3628
I48
sS'us'
p3629
I938
sS'liberty'
p3630
I4262
sS'mobile'
p3631
I2091
sS'thehalfcourtshot'
p3632
I4265
sS'lou'
p3633
I4266
sS'called'
p3634
I216
sS'baldwin'
p3635
I3898
sS'yelled'
p3636
I3422
sS'bell'
p3637
I1165
sS'attendant'
p3638
I3889
sS'newneighbors'
p3639
I4317
sS'ordered'
p3640
I420
sS'snatched'
p3641
I3546
sS'chad'
p3642
I800
sS'charcoal'
p3643
I4388
sS"archerydoesn'tfallfarfromthetree"
p3644
I4053
sS'lulu'
p3645
I4269
sS'``'
p3646
I3118
sS'heimlich'
p3647
I4271
sS'single'
p3648
I492
sS'warning'
p3649
I1166
sS"phil'stravels"
p3650
I3460
sS'crashcrash'
p3651
I2536
sS'teased'
p3652
I3628
sS'cafe'
p3653
I1529
sS'ishouldhavecheated'
p3654
I4714
sS'clubroom'
p3655
I4276
sS'stephen'
p3656
I4278
sS'rainbow'
p3657
I1167
sS'codes'
p3658
I4279
sS'lemon'
p3659
I4280
sS'blade'
p3660
I4281
sS'johnnygoesfishing'
p3661
I4282
sS'tara'
p3662
I1530
sS'pat'
p3663
I4283
sS'fears'
p3664
I2163
sS'sodamachine'
p3665
I3226
sS'nick'
p3666
I1089
sS'points'
p3667
I3409
sS'thehurricane'
p3668
I4286
sS'becomes'
p3669
I1745
sS'department'
p3670
I1531
sS'kira'
p3671
I1168
sS"theo'sfearofheights"
p3672
I4288
sS'nice'
p3673
I421
sS'dale'
p3674
I4289
sS'nalgene'
p3675
I4887
sS'draw'
p3676
I4291
sS'thepie'
p3677
I4292
sS'scrub'
p3678
I1532
sS'thanksgivingwiththeinlaws'
p3679
I4293
sS'problems'
p3680
I1533
sS'pretended'
p3681
I1534
sS'prepared'
p3682
I801
sS'helping'
p3683
I1511
sS'smiled'
p3684
I4295
sS'posters'
p3685
I2165
sS'desert'
p3686
I694
sS'ago'
p3687
I695
sS'lane'
p3688
I2166
sS'land'
p3689
I3614
sS'happier'
p3690
I1535
sS'disbelief'
p3691
I4822
sS'vice'
p3692
I4296
sS'physics'
p3693
I3987
sS'age'
p3694
I1415
sS'required'
p3695
I3927
sS'hitandrun'
p3696
I3223
sS'walked'
p3697
I241
sS'scream'
p3698
I4300
sS'hoarder'
p3699
I4824
sS'nasa'
p3700
I2169
sS'2006'
p3701
I4302
sS'roy'
p3702
I4303
sS'far'
p3703
I1864
sS'fresh'
p3704
I454
sS"josh'sbadday"
p3705
I4304
sS'requires'
p3706
I4305
sS'having'
p3707
I242
sS'once'
p3708
I900
sS'essay'
p3709
I4307
sS'amish'
p3710
I4308
sS'jason'
p3711
I696
sS'issued'
p3712
I3690
sS'nalgenebottle'
p3713
I4310
sS'results'
p3714
I1536
sS'zoey'
p3715
I4311
sS'steve'
p3716
I1051
sS'desserts'
p3717
I4313
sS'windy'
p3718
I2842
sS'gang'
p3719
I802
sS'thecouch'
p3720
I3124
sS'go'
p3721
I50
sS'barbecue'
p3722
I3733
sS'adjustment'
p3723
I4316
sS'kate'
p3724
I803
sS'seemed'
p3725
I1170
sS'rhonda'
p3726
I2172
sS'simon'
p3727
I4318
sS'saleswoman'
p3728
I2173
sS'stunned'
p3729
I2093
sS'thedentist'
p3730
I4319
sS'peanut'
p3731
I4320
sS'concerned'
p3732
I547
sS'fenced'
p3733
I4321
sS'young'
p3734
I243
sS'send'
p3735
I2174
sS'nose'
p3736
I2175
sS'goodbook'
p3737
I4322
sS'maddie'
p3738
I4353
sS'thelamb'
p3739
I4552
sS'connorcarbreaksdown'
p3740
I4924
sS'careened'
p3741
I4323
sS'charity'
p3742
I4324
sS'theburglar'
p3743
I4147
sS'friendly'
p3744
I2178
sS'sent'
p3745
I548
sS'uploaded'
p3746
I2179
sS'thechurch'
p3747
I4326
sS'garden'
p3748
I805
sS'ukulele'
p3749
I2180
sS'dessert'
p3750
I1902
sS'gina'
p3751
I2182
sS'paddled'
p3752
I4327
sS'outdoorsy'
p3753
I4328
sS'wave'
p3754
I3269
sS'traveldreams'
p3755
I4330
sS'squeaked'
p3756
I3010
sS'wishes'
p3757
I3418
sS'animals'
p3758
I948
sS'surgeon'
p3759
I1651
sS'continued'
p3760
I1172
sS'fridaynightbasketball'
p3761
I3317
sS'entire'
p3762
I609
sS'joec'
p3763
I4335
sS'excruciating'
p3764
I4336
sS'transmission'
p3765
I4337
sS'experiencing'
p3766
I1539
sS'notes'
p3767
I1124
sS'shock'
p3768
I4339
sS'michael'
p3769
I1540
sS'ryan'
p3770
I1173
sS'potofgold'
p3771
I3555
sS'try'
p3772
I129
sS'assignments'
p3773
I1541
sS'race'
p3774
I697
sS'thedelay'
p3775
I4340
sS'knife'
p3776
I3556
sS'thesnowman'
p3777
I4341
sS'dogproblem'
p3778
I4342
sS'astronaut'
p3779
I4792
sS'snails'
p3780
I3897
sS'challenge'
p3781
I2213
sS'joey'
p3782
I699
sS'batter'
p3783
I4344
sS'someday'
p3784
I2186
sS'promdate'
p3785
I4345
sS'cap'
p3786
I2187
sS'carter'
p3787
I2188
sS'bleeding'
p3788
I3553
sS'thecarride'
p3789
I4347
sS'carly'
p3790
I2189
sS'scientist'
p3791
I4348
sS'boots'
p3792
I1542
sS'waking'
p3793
I2190
sS'jump'
p3794
I806
sS'carla'
p3795
I1543
sS'charliehelpspaint'
p3796
I4839
sS'video'
p3797
I311
sS'traveling'
p3798
I1174
sS'uncomfortable'
p3799
I455
sS'reunion'
p3800
I1175
sS'thetree'
p3801
I4350
sS'acid'
p3802
I4351
sS'spaghetti'
p3803
I610
sS'hopped'
p3804
I3997
sS'pianorecital'
p3805
I4352
sS'waitress'
p3806
I2869
sS'plays'
p3807
I2193
sS'power'
p3808
I1410
sS'donut'
p3809
I2657
sS'giving'
p3810
I1545
sS'thelazydriver'
p3811
I2844
sS'squeeze'
p3812
I4356
sS'vampire'
p3813
I2194
sS'practices'
p3814
I4357
sS'cell'
p3815
I2195
sS'paying'
p3816
I4358
sS'waiting'
p3817
I700
sS'racetovictory'
p3818
I4359
sS'apologize'
p3819
I4498
sS'<padding>'
p3820
I0
sS'electricity'
p3821
I2380
sS'pristine'
p3822
I2632
sS'theputt'
p3823
I4361
sS'bird'
p3824
I940
sS"tom'slifeinohio"
p3825
I4362
sS'body'
p3826
I355
sS'toast'
p3827
I1628
sS'lawns'
p3828
I4275
sS'led'
p3829
I808
sS'chose'
p3830
I2196
sS'degree'
p3831
I941
sS'leg'
p3832
I1176
sS'gathered'
p3833
I2197
sS'cal'
p3834
I4363
sS'commercial'
p3835
I2198
sS'leo'
p3836
I1177
sS'believed'
p3837
I1622
sS'let'
p3838
I701
sS'conceited'
p3839
I4364
sS'others'
p3840
I942
sS'sing'
p3841
I927
sS'thebaby'
p3842
I4366
sS'joins'
p3843
I4367
sS'bridgett'
p3844
I3793
sS'great'
p3845
I60
sS'fredspillspaint'
p3846
I4369
sS'receive'
p3847
I2200
sS'poured'
p3848
I1547
sS'pre-school'
p3849
I4067
sS'casino'
p3850
I943
sS'survey'
p3851
I1548
sS'townspeople'
p3852
I1719
sS'handshake'
p3853
I4372
sS'themine'
p3854
I3324
sS'makes'
p3855
I891
sS'thekittens'
p3856
I4844
sS'control'
p3857
I2215
sS'named'
p3858
I549
sS'panicked'
p3859
I2203
sS'busking'
p3860
I4375
sS'apple'
p3861
I1179
sS'clark'
p3862
I4376
sS'admired'
p3863
I2204
sS'win'
p3864
I611
sS'private'
p3865
I2206
sS'pizzalasagna'
p3866
I4377
sS'names'
p3867
I4378
sS'apply'
p3868
I2207
sS'shoppingforanewpc'
p3869
I4379
sS'greg'
p3870
I809
sS'singing'
p3871
I4380
sS'cloud'
p3872
I2208
sS'dogparklove'
p3873
I3140
sS'standing'
p3874
I2209
sS'use'
p3875
I297
sS'cheered'
p3876
I937
sS'from'
p3877
I81
sS'badkitten'
p3878
I4868
sS'sdcards'
p3879
I4384
sS'mowing'
p3880
I4385
sS'ferris'
p3881
I4386
sS'frog'
p3882
I2210
sS'next'
p3883
I120
sS'few'
p3884
I207
sS'camera'
p3885
I423
sS'crab'
p3886
I2211
sS'vehicle'
p3887
I1549
sS'tabitha'
p3888
I4387
sS'themselves'
p3889
I944
sS'recital'
p3890
I3946
sS'burst'
p3891
I1931
sS'sort'
p3892
I1550
sS'pencil'
p3893
I3397
sS'excitedly'
p3894
I4389
sS'upcoming'
p3895
I1551
sS'porch'
p3896
I946
sS'started'
p3897
I263
sS'halloween'
p3898
I1552
sS'musician'
p3899
I1553
sS'kiosk'
p3900
I4390
sS'about'
p3901
I40
sS'norefunds'
p3902
I4391
sS'trail'
p3903
I1181
sS'train'
p3904
I947
sS'theitinerary'
p3905
I4392
sS'joeandsantaclaus'
p3906
I4393
sS'baby'
p3907
I244
sS'preoccupied'
p3908
I4394
sS'newjeans'
p3909
I4395
sS'theheat'
p3910
I4396
sS'potential'
p3911
I4397
sS'casserole'
p3912
I4398
sS'subscription'
p3913
I2212
sS'customer'
p3914
I4399
sS'high'
p3915
I357
sS'frequently'
p3916
I3963
sS'balls'
p3917
I1538
sS'practicing'
p3918
I1171
sS'f'
p3919
I4402
sS'this'
p3920
I1183
sS'ride'
p3921
I332
sS'clients'
p3922
I1184
sS'cope'
p3923
I2655
sS'blooddrive'
p3924
I4403
sS'performing'
p3925
I4404
sS'creepy'
p3926
I1554
sS'anywhere'
p3927
I4405
sS'crossed'
p3928
I4406
sS'thin'
p3929
I2214
sS'island'
p3930
I2130
sS'meet'
p3931
I356
sS'dropped'
p3932
I1869
sS'point'
p3933
I2033
sS'slid'
p3934
I4408
sS'playinginaband'
p3935
I4409
sS'patrol'
p3936
I4410
sS'bent'
p3937
I2216
sS'snacks'
p3938
I702
sS'process'
p3939
I2217
sS'lock'
p3940
I3571
sS'anniversarygift'
p3941
I2609
sS'rode'
p3942
I810
sS'lizard'
p3943
I4413
sS'studies'
p3944
I4414
sS'pieces'
p3945
I2218
sS'escaped'
p3946
I1182
sS'professor'
p3947
I2219
sS'allnighter'
p3948
I2220
sS'tag'
p3949
I1186
sS'pulling'
p3950
I4415
sS'something'
p3951
I550
sS'slip'
p3952
I703
sS'thekitty'
p3953
I4325
sS'sought'
p3954
I4416
sS'sunglasses'
p3955
I4237
sS'tan'
p3956
I1555
sS'badmakeup'
p3957
I4417
sS'lamb'
p3958
I2222
sS'practical'
p3959
I3579
sS'sip'
p3960
I4418
sS'memorize'
p3961
I4419
sS'sit'
p3962
I950
sS'clothing'
p3963
I2223
sS'six'
p3964
I952
sS'lesley'
p3965
I4420
sS'arrangement'
p3966
I2225
sS'materials'
p3967
I2667
sS'brian'
p3968
I4422
sS'sia'
p3969
I2226
sS'mugging'
p3970
I3580
sS'amishcountry'
p3971
I4423
sS'badheadache'
p3972
I2507
sS'animal'
p3973
I488
sS'chessmaster'
p3974
I4425
sS'instead'
p3975
I358
sS'struggled'
p3976
I4277
sS'comedy'
p3977
I2227
sS'batting'
p3978
I4427
sS'stock'
p3979
I2228
sS'butteredbread'
p3980
I4428
sS'alicia'
p3981
I3373
sS'blocks'
p3982
I4430
sS'attend'
p3983
I811
sS'farm'
p3984
I1557
sS'watch'
p3985
I166
sS'thesoup'
p3986
I4431
sS'thunderstorm'
p3987
I4432
sS'collection'
p3988
I812
sS'bothered'
p3989
I4433
sS'ronald'
p3990
I4434
sS'fart'
p3991
I4332
sS'paintball'
p3992
I2229
sS'bench'
p3993
I4436
sS'wrist'
p3994
I4437
sS'newlights'
p3995
I4438
sS'ortizatthermv'
p3996
I4439
sS'account'
p3997
I4400
sS'efficiently'
p3998
I1937
sS'tomato'
p3999
I4440
sS'realized'
p4000
I279
sS'drop'
p4001
I2230
sS'daycare'
p4002
I2231
sS'light'
p4003
I704
sS'counter'
p4004
I2232
sS'robot'
p4005
I4441
sS'bakery'
p4006
I1187
sS'realizes'
p4007
I1559
sS'nancy'
p4008
I1560
sS"jaime'spassion"
p4009
I4442
sS'furious'
p4010
I951
sS'watermelon'
p4011
I1743
sS'addiction'
p4012
I2233
sS'lined'
p4013
I1189
sS'discussion'
p4014
I3155
sS'theletter'
p4015
I4444
sS'boxing'
p4016
I2224
sS'poor'
p4017
I4811
sS'move'
p4018
I254
sS'thefort'
p4019
I3787
sS'meter'
p4020
I4448
sS'produced'
p4021
I4449
sS'joanne'
p4022
I1561
sS'weirdly'
p4023
I4450
sS'thedeepend'
p4024
I2234
sS'costume'
p4025
I1562
sS'cruise'
p4026
I2235
sS'mentioned'
p4027
I4451
sS'candicediscoverssoftball'
p4028
I4452
sS'bunch'
p4029
I2294
sS'perfect'
p4030
I383
sS'anonymously'
p4031
I2801
sS'negotiated'
p4032
I4455
sS'thuggery'
p4033
I4456
sS'outer'
p4034
I4457
sS'thesteakhouse'
p4035
I4458
sS'fatgoldfish'
p4036
I3561
sS'botanical'
p4037
I4461
sS'll'
p4038
I1190
sS'lostandfound'
p4039
I4462
sS'winning'
p4040
I1563
sS'kindergarten'
p4041
I4463
sS'karatelessons'
p4042
I4858
sS'thevacation'
p4043
I3743
sS'degrees'
p4044
I2305
sS'button'
p4045
I4338
sS'thewolf'
p4046
I4467
sS'jody'
p4047
I2236
sS'hobby'
p4048
I2161
sS'holiday'
p4049
I1803
sS'90210'
p4050
I4470
sS'lostphonesignal'
p4051
I3905
sS'dad'
p4052
I298
sS'lennywinsbig'
p4053
I4472
sS'crash'
p4054
I4473
sS'tryingteas'
p4055
I2851
sS'ninety'
p4056
I4475
sS'flour'
p4057
I4476
sS'dan'
p4058
I705
sS'practice'
p4059
I813
sS'runs'
p4060
I1564
sS'oranges'
p4061
I1216
sS'property'
p4062
I1084
sS'cutting'
p4063
I4478
sS'snake'
p4064
I2238
sS'kiss'
p4065
I4479
sS'hands'
p4066
I4480
sS'front'
p4067
I1603
sS'republican'
p4068
I4482
sS'cage'
p4069
I706
sS'day'
p4070
I26
sS'preschool'
p4071
I4483
sS'friendlyskies'
p4072
I4020
sS'skillset'
p4073
I2687
sS'gamersneedlovetoo'
p4074
I4485
sS'toddler'
p4075
I2239
sS'thousands'
p4076
I4486
sS'greatgardenfind'
p4077
I4487
sS'fundraiser'
p4078
I4860
sS'tram'
p4079
I2240
sS'warned'
p4080
I4489
sS'university'
p4081
I2241
sS'20'
p4082
I3841
sS'sneezed'
p4083
I4491
sS'mariatalksaboutmomo'
p4084
I3347
sS'billy'
p4085
I551
sS'slipping'
p4086
I2242
sS'trap'
p4087
I2243
sS'breeze'
p4088
I4493
sS'crossing'
p4089
I953
sS'bills'
p4090
I954
sS'tray'
p4091
I2244
sS'experienced'
p4092
I1517
sS'glasses'
p4093
I1191
sS'latefee'
p4094
I4495
sS'doing'
p4095
I424
sS'barbara'
p4096
I4496
sS'adventure'
p4097
I2388
sS'joyce'
p4098
I2703
sS'product'
p4099
I4499
sS'pantry'
p4100
I4500
sS'fractions'
p4101
I4501
sS'society'
p4102
I4502
sS'books'
p4103
I955
sS'our'
p4104
I185
sS'80'
p4105
I4503
sS'salesman'
p4106
I2481
sS'special'
p4107
I552
sS'out'
p4108
I31
sS'rex'
p4109
I4505
sS'sunlight'
p4110
I4506
sS"'"
p4111
I22
sS'entertainment'
p4112
I4508
sS'unclearhatred'
p4113
I3152
sS'defend'
p4114
I1566
sS'milofindsanunlikelyfriend'
p4115
I4509
sS'mailfanatic'
p4116
I4771
sS'furiously'
p4117
I4510
sS'ricky'
p4118
I1192
sS'almostarrestedatchipotle'
p4119
I4511
sS'mate'
p4120
I4512
sS'freshman'
p4121
I4513
sS'playground'
p4122
I2247
sS'hilarious'
p4123
I4514
sS'electronics'
p4124
I4515
sS'primped'
p4125
I4516
sS'announced'
p4126
I1230
sS'therace'
p4127
I4517
sS'afford'
p4128
I2248
sS"david'sgift"
p4129
I4518
sS'harold'
p4130
I1658
sS'umbrella'
p4131
I2417
sS'approached'
p4132
I834
sS'picnicatthepark'
p4133
I4611
sS'stenographer'
p4134
I4521
sS'frank'
p4135
I553
sS'rememberthemouse'
p4136
I4522
sS'molly'
p4137
I4523
sS'release'
p4138
I3808
sS'completely'
p4139
I2250
sS'jill'
p4140
I333
sS'tied'
p4141
I2608
sS'dumpster'
p4142
I1567
sS'doubles'
p4143
I4526
sS'early'
p4144
I326
sS'fearofflying'
p4145
I4529
sS'craving'
p4146
I4530
sS'1983'
p4147
I2488
sS'scary'
p4148
I2251
sS'squadron'
p4149
I4532
sS'yard'
p4150
I707
sS'her'
p4151
I15
sS'mesmerized'
p4152
I708
sS"tiffany'snewbike"
p4153
I4533
sS'rainydaykitties'
p4154
I3415
sS'could'
p4155
I121
sS'florida'
p4156
I613
sS'dvd'
p4157
I4534
sS'horace'
p4158
I2252
sS'david'
p4159
I359
sS'conversation'
p4160
I956
sS'produce'
p4161
I1053
sS'explored'
p4162
I2075
sS'nolistening'
p4163
I4536
sS'austin'
p4164
I4537
sS'vegetables'
p4165
I622
sS'anita'
p4166
I1568
sS'designed'
p4167
I4538
sS'jackandthecat'
p4168
I4249
sS'theballerina'
p4169
I4540
sS'blown'
p4170
I1677
sS'scene'
p4171
I816
sS'computerrepair'
p4172
I3232
sS'jesus'
p4173
I4542
sS'embarrassed'
p4174
I709
sS'thebrokenvase'
p4175
I4671
sS'owner'
p4176
I710
sS'reached'
p4177
I4543
sS'awarded'
p4178
I2905
sS'quality'
p4179
I1569
sS'hiding'
p4180
I4849
sS'succulents'
p4181
I4546
sS'bonus'
p4182
I2460
sS'monkey'
p4183
I4548
sS'strict'
p4184
I2255
sS'festival'
p4185
I957
sS'dove'
p4186
I2691
sS'habit'
p4187
I4549
sS'chased'
p4188
I2257
sS'system'
p4189
I4550
sS'adopted'
p4190
I2258
sS'their'
p4191
I82
sS'shanna'
p4192
I4551
sS'decorations'
p4193
I1712
sS'ankle'
p4194
I1193
sS'missy'
p4195
I3605
sS'chaser'
p4196
I4554
sS'jellyfish'
p4197
I2259
sS'maureenplaysgolf'
p4198
I3969
sS'cabin'
p4199
I4555
sS'beard'
p4200
I1194
sS'groggily'
p4201
I4556
sS'thecarbreaksdown'
p4202
I2643
sS'billiardsandbliss'
p4203
I4558
sS'stomach'
p4204
I4559
sS'gear'
p4205
I1570
sS'shorts'
p4206
I1571
sS'shelf'
p4207
I3533
sS'breastcancer'
p4208
I2396
sS'exactly'
p4209
I2260
sS'motorcycle'
p4210
I1572
sS'megan'
p4211
I958
sS'biggest'
p4212
I4876
sS'theperformance'
p4213
I4561
sS'decorating'
p4214
I2183
sS'tended'
p4215
I4562
sS'alerted'
p4216
I4583
sS'universalstudios'
p4217
I3178
sS'july'
p4218
I2261
sS'herself'
p4219
I456
sS'neck'
p4220
I2262
sS'loved'
p4221
I75
sS'glamorous'
p4222
I4564
sS'ben'
p4223
I817
sS'liquid'
p4224
I3179
sS'boring'
p4225
I1196
sS'bea'
p4226
I4566
sS'shampoo'
p4227
I2730
sS'lion'
p4228
I1574
sS'bed'
p4229
I334
sS'tommy'
p4230
I1575
sS'claim'
p4231
I4568
sS'coffeebreak'
p4232
I4569
sS'overjoyed'
p4233
I3309
sS'theincredibleday'
p4234
I4570
sS'loves'
p4235
I360
sS'candles'
p4236
I3368
sS'visited'
p4237
I614
sS'matched'
p4238
I4572
sS'bev'
p4239
I4573
sS'dusty'
p4240
I4574
sS'bet'
p4241
I615
sS'drunk'
p4242
I1576
sS'hairstyle'
p4243
I4575
sS'nfl'
p4244
I4490
sS'2014'
p4245
I4720
sS'wakes'
p4246
I4576
sS'atriptojapan'
p4247
I4577
sS'trusting'
p4248
I4578
sS'thetrashcan'
p4249
I4579
sS'teenagers'
p4250
I2794
sS'curves'
p4251
I4581
sS'comfortable'
p4252
I4582
sS'themask'
p4253
I2699
sS'spicy'
p4254
I4584
sS'have'
p4255
I58
sS'need'
p4256
I818
sS'apparently'
p4257
I2263
sS'theturtle'
p4258
I4585
sS'jug'
p4259
I4586
sS'thelosteye'
p4260
I4791
sS'harshfoul'
p4261
I2836
sS'lila'
p4262
I4587
sS'followthesound'
p4263
I4588
sS'dishes'
p4264
I2264
sS'dallas'
p4265
I1580
sS'mia'
p4266
I959
sS'studying'
p4267
I1131
sS'semester'
p4268
I3766
sS'able'
p4269
I64
sS'claire'
p4270
I4590
sS'waffles'
p4271
I2265
sS'mix'
p4272
I2266
sS'dug'
p4273
I4591
sS'which'
p4274
I2267
sS'officeparty'
p4275
I4592
sS'linda'
p4276
I1037
sS'detector'
p4277
I2888
sS'juliet'
p4278
I2754
sS'thedoctor'
p4279
I4596
sS'allow'
p4280
I4597
sS'chineselanguage'
p4281
I4599
sS'lionsatthezoo'
p4282
I4600
sS'who'
p4283
I156
sS'doug'
p4284
I3631
sS'therestoration'
p4285
I4601
sS'necklace'
p4286
I2268
sS'montana'
p4287
I2269
sS'connected'
p4288
I4602
sS'evacuate'
p4289
I1581
sS'janicemakesabet'
p4290
I4603
sS'camped'
p4291
I4604
sS'caitlin'
p4292
I4605
sS'sally'
p4293
I513
sS'class'
p4294
I178
sS'realtor'
p4295
I2962
sS'plumber'
p4296
I4607
sS'volunteers'
p4297
I2270
sS'saltycake'
p4298
I2972
sS'academy'
p4299
I4560
sS'tutoring'
p4300
I4610
sS'upset'
p4301
I712
sS'disease'
p4302
I4612
sS'outfit'
p4303
I4689
sS'face'
p4304
I960
sS'looked'
p4305
I189
sS'newbaby'
p4306
I4333
sS'scrambled'
p4307
I3003
sS'hi'
p4308
I4882
sS'secretsanta'
p4309
I4617
sS'sickasadog'
p4310
I4618
sS'pictures'
p4311
I544
sS'skinny'
p4312
I4620
sS'skunk'
p4313
I4621
sS'painting'
p4314
I490
sS'goals'
p4315
I2352
sS'affair'
p4316
I2271
sS'atmosphere'
p4317
I4623
sS'selection'
p4318
I2272
sS'super'
p4319
I4624
sS'visittograceland'
p4320
I4625
sS'brenda'
p4321
I2273
sS'text'
p4322
I4626
sS'agreed'
p4323
I299
sS'charles'
p4324
I554
sS'mustang'
p4325
I4197
sS'anyway'
p4326
I4627
sS'hamlet'
p4327
I4628
sS'bring'
p4328
I1583
sS'planning'
p4329
I961
sS'parked'
p4330
I2274
sS'bedroom'
p4331
I1584
sS'fear'
p4332
I962
sS'dried'
p4333
I3404
sS'filthy'
p4334
I4629
sS'pleased'
p4335
I361
sS'democrat'
p4336
I4230
sS'principal'
p4337
I2275
sS'openings'
p4338
I2416
sS'billyblowshiscarup'
p4339
I4504
sS'ear'
p4340
I2353
sS'grabbed'
p4341
I819
sS'tire'
p4342
I425
sS'hadn'
p4343
I2276
sS'downstairs'
p4344
I4631
sS'booklover'
p4345
I4632
sS'winner'
p4346
I2277
sS'jar'
p4347
I1585
sS'roommates'
p4348
I3316
sS'rash'
p4349
I2278
sS'should'
p4350
I724
sS'jan'
p4351
I964
sS'hector'
p4352
I1586
sS'planted'
p4353
I517
sS'tape'
p4354
I1341
sS'ethan'
p4355
I2279
sS'employee'
p4356
I4636
sS'riding'
p4357
I457
sS'piano'
p4358
I1587
sS'handsome'
p4359
I4637
sS'local'
p4360
I98
sS'hope'
p4361
I965
sS'finger'
p4362
I2280
sS'meant'
p4363
I4638
sS'jackpot'
p4364
I4639
sS'bakingcookies'
p4365
I4640
sS'costa'
p4366
I3924
sS'handle'
p4367
I4641
sS'listened'
p4368
I713
sS'watching'
p4369
I4643
sS'beat'
p4370
I1197
sS'canyon'
p4371
I3720
sS'coworker'
p4372
I1198
sS'lucky'
p4373
I966
sS'bear'
p4374
I4645
sS'workingout'
p4375
I4447
sS'newcast'
p4376
I4647
sS'joint'
p4377
I4648
sS'suet'
p4378
I2281
sS'stars'
p4379
I4649
sS'words'
p4380
I1588
sS'distraught'
p4381
I3593
sS'buyer'
p4382
I2283
sS'joetheconcierge'
p4383
I4650
sS'chips'
p4384
I2284
sS'crosscountry'
p4385
I2749
sS'abby'
p4386
I2285
sS'thesewingmachine'
p4387
I4651
sS'following'
p4388
I2199
sS'fran'
p4389
I4652
sS'jobpromotion'
p4390
I3891
sS'ended'
p4391
I250
sS'gust'
p4392
I2286
sS'married'
p4393
I385
sS'pillowfight'
p4394
I4653
sS'taxes'
p4395
I4654
sS'calling'
p4396
I2287
sS'whether'
p4397
I2356
sS'stuff'
p4398
I968
sS'she'
p4399
I10
sS'birthdaygift'
p4400
I2922
sS'ohio'
p4401
I1590
sS'grab'
p4402
I4656
sS'fixed'
p4403
I969
sS'view'
p4404
I1200
sS'spotted'
p4405
I820
sS'available'
p4406
I2959
sS'requirement'
p4407
I4658
sS'talltalesofmexico'
p4408
I4126
sS'puddle'
p4409
I2289
sS'pitch'
p4410
I4660
sS'cleaners'
p4411
I4661
sS'lazy'
p4412
I1903
sS'travis'
p4413
I2290
sS'computer'
p4414
I335
sS'driveway'
p4415
I821
sS'desperate'
p4416
I2291
sS'skateboarding'
p4417
I4663
sS'humane'
p4418
I4665
sS'packed'
p4419
I970
sS'newhaircolor'
p4420
I4667
sS'closer'
p4421
I2292
sS'soupkitchenvolunteer'
p4422
I3978
sS'closet'
p4423
I1201
sS'thehotsprings'
p4424
I3623
sS'trudy'
p4425
I4334
sS'ralph'
p4426
I3340
sS'thetv'
p4427
I3342
sS'theblindman'
p4428
I4673
sS'mozzy'
p4429
I4674
sS'state'
p4430
I714
sS'sweat'
p4431
I4855
sS'closed'
p4432
I1591
sS'horrible'
p4433
I1202
sS'weird'
p4434
I2739
sS'limit'
p4435
I2358
sS'snakebite'
p4436
I2526
sS'warren'
p4437
I2863
sS'feces'
p4438
I4676
sS'email'
p4439
I972
sS'bought'
p4440
I104
sS'glen'
p4441
I1363
sS'handful'
p4442
I4677
sS'george'
p4443
I2582
sS'exam'
p4444
I2254
sS'mydiagnosis'
p4445
I4679
sS'rubbergarden'
p4446
I4454
sS'importance'
p4447
I4681
sS'joy'
p4448
I4682
sS'court'
p4449
I3805
sS'deliver'
p4450
I4683
sS'pajamas'
p4451
I4861
sS'earpiercing'
p4452
I4619
sS'willing'
p4453
I4685
sS'job'
p4454
I69
sS'joe'
p4455
I336
sS'key'
p4456
I4686
sS'jog'
p4457
I4687
sS'group'
p4458
I760
sS'puzzled'
p4459
I1659
sS'souvenir'
p4460
I3896
sS'lawsuit'
p4461
I4153
sS'jon'
p4462
I2295
sS'thank'
p4463
I3201
sS'marty'
p4464
I4691
sS'toothbrush'
p4465
I4692
sS'themagician'
p4466
I3911
sS'figured'
p4467
I4268
sS'drewfindsacabin'
p4468
I4694
sS'career'
p4469
I2297
sS'theonethatperseveres'
p4470
I4695
sS'taking'
p4471
I375
sS'ramp'
p4472
I2298
sS'drug'
p4473
I3464
sS'trips'
p4474
I2299
sS'newshoes'
p4475
I2828
sS'chosen'
p4476
I4460
sS'admit'
p4477
I1204
sS'thepasta'
p4478
I4893
sS'inspired'
p4479
I3756
sS'passing'
p4480
I1592
sS'heart'
p4481
I4179
sS'safely'
p4482
I1593
sS'aquarium'
p4483
I555
sS'assistants'
p4484
I4045
sS'vent'
p4485
I4698
sS'applepicking'
p4486
I3654
sS'co'
p4487
I822
sS'wendyloseshercool'
p4488
I4056
sS'wall'
p4489
I491
sS'tuesday'
p4490
I4700
sS'kerrygetsabird'
p4491
I4613
sS'bikini'
p4492
I4105
sS'walk'
p4493
I337
sS'laugh'
p4494
I1205
sS'news'
p4495
I458
sS'table'
p4496
I264
sS'anoldfriend'
p4497
I4703
sS'lorrie'
p4498
I4704
sS'bee'
p4499
I4693
sS'unhappiness'
p4500
I3554
sS'quit'
p4501
I716
sS'mailman'
p4502
I4707
sS'johnny'
p4503
I447
sS'swimmer'
p4504
I1594
sS'addition'
p4505
I1981
sS'decent'
p4506
I4708
sS'silvia'
p4507
I2302
sS'sara'
p4508
I2303
sS'thanked'
p4509
I974
sS'breakdown'
p4510
I4709
sS'quiz'
p4511
I4710
sS'shame'
p4512
I2814
sS'exhausted'
p4513
I2304
sS'homeschooled'
p4514
I4711
sS'drank'
p4515
I717
sS'slowly'
p4516
I1989
sS'treat'
p4517
I1207
sS'curtain'
p4518
I1990
sS'proposal'
p4519
I3618
sS'waste'
p4520
I2306
sS'bbq'
p4521
I1941
sS'jasminperseveres'
p4522
I4836
sS'faced'
p4523
I4715
sS'mike'
p4524
I718
sS'parker'
p4525
I4716
sS'cop'
p4526
I1881
sS'painted'
p4527
I1595
sS'moved'
p4528
I823
sS'turtlehatching'
p4529
I4718
sS'orange'
p4530
I2308
sS'finished'
p4531
I386
sS'planner'
p4532
I4520
sS'thecoffeeshop'
p4533
I4719
sS'covered'
p4534
I4468
sS'smoking'
p4535
I901
sS'adayonthebeach'
p4536
I4722
sS"we'vebeenrobbed"
p4537
I3685
sS'present'
p4538
I1210
sS'homes'
p4539
I3674
sS'multi'
p4540
I3420
sS'novel'
p4541
I975
sS'license'
p4542
I2245
sS"dog'sbehavior"
p4543
I4726
sS'dodge'
p4544
I4727
sS'plain'
p4545
I4728
sS'newtelevision'
p4546
I4729
sS'theolderman'
p4547
I4349
sS'value'
p4548
I2310
sS'will'
p4549
I426
sS'paul'
p4550
I4731
sS'owns'
p4551
I4732
sS'promoted'
p4552
I2311
sS'jay'
p4553
I4733
sS'charlesplaystennis'
p4554
I4734
sS'2012'
p4555
I4471
sS'frustrating'
p4556
I4735
sS"jill'snightout"
p4557
I4736
sS'grandmaknowsbest'
p4558
I4737
sS'at'
p4559
I36
sS'supply'
p4560
I1373
sS'annual'
p4561
I2111
sS've'
p4562
I1211
sS'walks'
p4563
I3635
sS'surprisingly'
p4564
I2313
sS'ambergoestothemovies'
p4565
I2737
sS'readinginfluencer'
p4566
I4740
sS'helped'
p4567
I1212
sS"jude'sguitar"
p4568
I4741
sS'lonely'
p4569
I3213
sS'demanded'
p4570
I2981
sS'frying'
p4571
I4744
sS'politics'
p4572
I4745
sS'tombecomesajudge'
p4573
I4746
sS'ava'
p4574
I4747
sS'tattoo'
p4575
I4748
sS'palmed'
p4576
I4749
sS'shooting'
p4577
I2363
sS'admitted'
p4578
I4806
sS'generic'
p4579
I4751
sS'vintage'
p4580
I1597
sS'began'
p4581
I211
sS'cross'
p4582
I2314
sS'jenna'
p4583
I2020
sS'member'
p4584
I1213
sS'matthew'
p4585
I4752
sS'another'
p4586
I2316
sS'strange'
p4587
I1598
sS'mousenoises'
p4588
I4753
sS'digital'
p4589
I4754
sS'coffeeburn'
p4590
I4755
sS'shuttle'
p4591
I4756
sS'party'
p4592
I427
sS'cream'
p4593
I407
sS'thevigil'
p4594
I2742
sS"sarah'sgirlfriend"
p4595
I4758
sS'tomatoes'
p4596
I1460
sS'difficult'
p4597
I557
sS'injured'
p4598
I824
sS'ball'
p4599
I312
sS'eggplant'
p4600
I4760
sS'solved'
p4601
I3868
sS'suzy'
p4602
I4761
sS'drink'
p4603
I1214
sS'upon'
p4604
I1215
sS'upclose'
p4605
I4762
sS'universityofalabama'
p4606
I3890
sS'bullying'
p4607
I4764
sS'conqueringafear'
p4608
I4765
sS'tangled'
p4609
I4766
sS'flew'
p4610
I2237
sS'student'
p4611
I459
sS'discouraged'
p4612
I2317
sS'infinite'
p4613
I2318
sS'yoga'
p4614
I1599
sS'sunburn'
p4615
I2319
sS'kitchennightmare'
p4616
I4767
sS'lobby'
p4617
I4768
sS'keep'
p4618
I247
sS'eggplantparmesan'
p4619
I4770
sS'ashley'
p4620
I677
sS'center'
p4621
I976
sS'lunch'
p4622
I235
sS'i'
p4623
I19
sS'ingredients'
p4624
I4273
sS'well'
p4625
I231
sS'unpacked'
p4626
I2320
sS'fighting'
p4627
I4774
sS'antonio'
p4628
I2321
sS'thought'
p4629
I245
sS'suzygoestoschool'
p4630
I4775
sS'drone'
p4631
I1600
sS'mountainclimbing'
p4632
I4776
sS"roy'snewpup"
p4633
I4777
sS'english'
p4634
I1601
sS'position'
p4635
I719
sS'drawing'
p4636
I1217
sS'latest'
p4637
I4778
sS'moreimportantthingsthanpeople'
p4638
I4465
sS'stores'
p4639
I1602
sS'cried'
p4640
I825
sS'less'
p4641
I2323
sS'moments'
p4642
I4779
sS'boot'
p4643
I4908
sS'areyoudoneyet'
p4644
I4781
sS'flies'
p4645
I1087
sS'distracted'
p4646
I4539
sS'arriving'
p4647
I2246
sS'stored'
p4648
I4782
sS'warmbeer'
p4649
I3587
sS'fishing'
p4650
I826
sS'seats'
p4651
I4783
sS'skill'
p4652
I2325
sS'graduate'
p4653
I3644
sS"jacob'snewbusinessventure"
p4654
I4786
sS'flashlight'
p4655
I2326
sS'web'
p4656
I1604
sS'anewcar'
p4657
I4787
sS'tight'
p4658
I3645
sS'doorbell'
p4659
I4171
sS'mixer'
p4660
I3577
sS'jeff'
p4661
I545
sS'sky'
p4662
I2114
sS'lake'
p4663
I721
sS'thephone'
p4664
I2927
sS'realize'
p4665
I617
sS'drew'
p4666
I2170
sS"genie'smask"
p4667
I4789
sS'add'
p4668
I4790
sS'book'
p4669
I212
sS'wet'
p4670
I977
sS'flighttothemoon'
p4671
I4474
sS'crops'
p4672
I4702
sS'jars'
p4673
I4793
sS'smart'
p4674
I2328
sS'balloons'
p4675
I1761
sS'lancewins'
p4676
I4794
sS'match'
p4677
I750
sS'meteor'
p4678
I4914
sS'held'
p4679
I3833
sS'checking'
p4680
I2330
sS'mechanical'
p4681
I3659
sS'utah'
p4682
I1895
sS'crushed'
p4683
I4798
sS'aswim'
p4684
I4799
sS'five'
p4685
I828
sS'know'
p4686
I232
sS"don'ttrusttheweatherman"
p4687
I4701
sS'desk'
p4688
I559
sS'press'
p4689
I2331
sS'immediately'
p4690
I4801
sS'password'
p4691
I3668
sS'elephants'
p4692
I4869
sS'string'
p4693
I4803
sS'loss'
p4694
I4804
sS'fleas'
p4695
I2332
sS'trash'
p4696
I1998
sS'emma'
p4697
I1218
sS'like'
p4698
I338
sS'success'
p4699
I1021
sS'tryouts'
p4700
I4805
sS'sofa'
p4701
I978
sS'tons'
p4702
I2333
sS'candy'
p4703
I844
sS'taping'
p4704
I4807
sS'garage'
p4705
I560
sS"paul'sbusinesstrip"
p4706
I4808
sS'lose'
p4707
I1219
sS'become'
p4708
I979
sS"sally'snewjob"
p4709
I4809
sS'works'
p4710
I561
sS'soft'
p4711
I2334
sS'page'
p4712
I1608
sS'dallaswantstowrestle'
p4713
I3476
sS'receiving'
p4714
I4252
sS'alabama'
p4715
I4368
sS'shed'
p4716
I4812
sS'because'
p4717
I313
sS'allowed'
p4718
I4412
sS'classical'
p4719
I4813
sS'scared'
p4720
I428
sS'scottish'
p4721
I4096
sS'searching'
p4722
I1220
sS'library'
p4723
I2158
sS'hair'
p4724
I314
sS'pawned'
p4725
I4814
sS'almonds'
p4726
I4815
sS'gymnastics'
p4727
I2336
sS'straighten'
p4728
I3716
sS'renovations'
p4729
I4466
sS'home'
p4730
I52
sS'supportive'
p4731
I4264
sS'counterpizza'
p4732
I4817
sS'250'
p4733
I3444
sS'transport'
p4734
I4819
sS'cakeordeath'
p4735
I4820
sS'sniffing'
p4736
I4492
sS'turkeyreplacement'
p4737
I4821
sS'jeremy'
p4738
I1609
sS'monday'
p4739
I4918
sS'lead'
p4740
I2167
sS'thedog'
p4741
I4823
sS'dunes'
p4742
I4301
sS'leak'
p4743
I2337
sS'garrett'
p4744
I2584
sS'hurricane'
p4745
I618
sS'slide'
p4746
I4826
sS'markers'
p4747
I4827
sS'theancestor'
p4748
I4193
sS'shelter'
p4749
I1221
sS'does'
p4750
I2177
sS'passion'
p4751
I2338
sS'sewing'
p4752
I4830
sS'wendy'
p4753
I2339
sS'hire'
p4754
I1722
sS'charlessweepsthefloor'
p4755
I4832
sS'francistiesatie'
p4756
I2774
sS'chains'
p4757
I4834
sS'leader'
p4758
I4835
sS'?'
p4759
I698
sS'trout'
p4760
I2340
sS'thepoll'
p4761
I4176
sS'thehaircut'
p4762
I4838
sS'ripped'
p4763
I2341
sS'noise'
p4764
I939
sS'dianetakesaride'
p4765
I4840
sS'missingingredient'
p4766
I4841
sS'shaneshaveshisbeard'
p4767
I4738
sS'badturbulence'
p4768
I4842
sS'gps'
p4769
I4843
sS'ability'
p4770
I4678
sS'pressure'
p4771
I2342
sS'host'
p4772
I1610
sS'atriptothevineyard'
p4773
I3954
sS'although'
p4774
I1611
sS'pasta'
p4775
I1650
sS'sandwiches'
p4776
I936
sS'insults'
p4777
I3693
sS'yowling'
p4778
I4848
sS'stage'
p4779
I945
sS'sister'
p4780
I315
sS'justin'
p4781
I387
sS'gettingtothestore'
p4782
I4314
sS'getting'
p4783
I339
sS'spilled'
p4784
I2343
sS'basis'
p4785
I4850
sS'location'
p4786
I4166
sS'scott'
p4787
I2087
sS'goingdowntheriver'
p4788
I3915
sS'rodeo'
p4789
I4853
sS'seeds'
p4790
I4854
sS"ardenwantedhiswife'sattention"
p4791
I3310
sS'introduced'
p4792
I2345
sS'swimming'
p4793
I980
sS'harder'
p4794
I4730
sS'herbs'
p4795
I3037
sS'own'
p4796
I246
sS'carolyn'
p4797
I4857
sS'keeps'
p4798
I2519
sS'remembers'
p4799
I4060
sS'winningticket'
p4800
I4859
sS'screamed'
p4801
I2347
sS'ultrasound'
p4802
I4488
sS'guard'
p4803
I3914
sS'weather'
p4804
I2348
sS'brush'
p4805
I1482
sS'puppypurchase'
p4806
I4862
sS'artists'
p4807
I2349
sS'gus'
p4808
I2933
sS'quickly'
p4809
I1613
sS'anunusualtriptothecinema'
p4810
I4864
sS'sheet'
p4811
I3275
sS'terminated'
p4812
I4866
sS'accused'
p4813
I4867
sS'gerbil'
p4814
I2282
sS'francis'
p4815
I1411
sS'rushed'
p4816
I981
sS'museum'
p4817
I982
sS'challenged'
p4818
I2312
sS'trapped'
p4819
I4870
sS'theboyandhisboat'
p4820
I4871
sS'noticed'
p4821
I139
sS'spread'
p4822
I2350
sS'accountant'
p4823
I4872
sS'bees'
p4824
I2351
sS'jamesplaysfootball'
p4825
I4873
sS'themanipulator'
p4826
I3724
sS'complimented'
p4827
I4370
sS'gene'
p4828
I4373
sS'notices'
p4829
I1195
sS'gut'
p4830
I4877
sS'firedinoneday'
p4831
I4445
sS'jaketakesatest'
p4832
I4879
sS'buy'
p4833
I61
sS'tina'
p4834
I4880
sS'proficient'
p4835
I4881
sS'shane'
p4836
I830
sS'bus'
p4837
I265
sS'brand'
p4838
I831
sS'but'
p4839
I32
sS'thebirthday'
p4840
I4535
sS'construction'
p4841
I4616
sS'gain'
p4842
I2129
sS'wage'
p4843
I2751
sS"eric'svideo"
p4844
I4884
sS'highest'
p4845
I1498
sS'eat'
p4846
I122
sS'he'
p4847
I9
sS'swarmed'
p4848
I4885
sS'made'
p4849
I96
sS'tossed'
p4850
I2354
sS'places'
p4851
I2355
sS'noon'
p4852
I3550
sS'campus'
p4853
I2315
sS'wish'
p4854
I1616
sS'notime'
p4855
I4888
sS'flip'
p4856
I2357
sS'signed'
p4857
I983
sS'equally'
p4858
I4856
sS'excitement'
p4859
I4889
sS'record'
p4860
I4669
sS'shelby'
p4861
I4891
sS'stories'
p4862
I971
sS'newstore'
p4863
I4580
sS'cake'
p4864
I429
sS'problem'
p4865
I832
sS'piece'
p4866
I493
sS'minutes'
p4867
I1617
sS'display'
p4868
I4892
sS'additional'
p4869
I4531
sS'skating'
p4870
I2359
sS'firm'
p4871
I4084
sS"marc'sabsence"
p4872
I4894
sS'jenny'
p4873
I2361
sS'thenewbed'
p4874
I4151
sS'newpuppy'
p4875
I4896
sS'circus'
p4876
I2362
sS'pie'
p4877
I4897
sS'cruisevacation'
p4878
I4898
sS'thehelp'
p4879
I3159
sS'boardwalk'
p4880
I4900
sS'erik'
p4881
I4901
sS'families'
p4882
I4902
sS'education'
p4883
I1668
sS'pit'
p4884
I4903
sS'eric'
p4885
I722
sS'squirrel'
p4886
I4904
sS'creditfraud'
p4887
I4905
sS'tick'
p4888
I4802
sS'arra'
p4889
I4906
sS'contest'
p4890
I1224
sS'dressed'
p4891
I723
sS'newschool'
p4892
I4907
sS'oak'
p4893
I4780
sS'loosedoggy'
p4894
I4910
sS'lately'
p4895
I2364
sS'hospitalized'
p4896
I2790
sS'poms'
p4897
I4912
sS'other'
p4898
I190
sS'shannon'
p4899
I3619
sS'sick'
p4900
I4795
sS'wheelers'
p4901
I2679
sS'carpet'
p4902
I4916
sS'lance'
p4903
I2365
sS'junk'
p4904
I1618
sS'repeat'
p4905
I3176
sS'star'
p4906
I494
sS'waves'
p4907
I3270
sS'mturk'
p4908
I4919
sS'statueofliberty'
p4909
I4920
sS'june'
p4910
I1619
sS'matt'
p4911
I4921
sS'stay'
p4912
I833
sS'chance'
p4913
I1620
sS'cyberbullied'
p4914
I4922
sS'sciencetest'
p4915
I4211
sS'stan'
p4916
I1467
sS'friends'
p4917
I55
sS'trims'
p4918
I4374
sS'mytoughworkday'
p4919
I4925
sS'coat'
p4920
I4927
sS'notsanta'
p4921
I4507
sS'hiked'
p4922
I1621
sS'judybuysadress'
p4923
I4928
sS'ambulance'
p4924
I4929
sS'baked'
p4925
I4936
sS'bakes'
p4926
I4930
sS'lasted'
p4927
I1225
sS"where'sthewaterwhenyouneedit"
p4928
I4931
sS'talentcontest'
p4929
I2796
sS'elaine'
p4930
I2367
sS'searched'
p4931
I495
sS'rockshow'
p4932
I4933
sS'recalled'
p4933
I3322
sS'yell'
p4934
I2368
sS'smoker'
p4935
I4935
sS'skimming'
p4936
I3457
sS'moraldecision'
p4937
I4937
sS'paired'
p4938
I4263
s.